ccopy_reg
_reconstructor
p0
(cTrialHandler2
TrialHandler2
p1
c__builtin__
object
p2
Ntp3
Rp4
(dp5
S'n_trials'
p6
I4
sS'log_path'
p7
Vsubjects_behavior/Subject_1/Subject_1
p8
sS'data_dict'
p9
(dp10
S'RT'
p11
(lp12
Fnan
aF0.48016881942749023
aF0.4241371154785156
aF0.42912888526916504
asS'ts_r'
p13
(lp14
Fnan
aF1444034504.275304
aF1444034508.307525
aF1444034512.222676
asS'fixated'
p15
(lp16
I0
aI1
aI1
aI1
asS'choiceAngle'
p17
(lp18
Fnan
aF7.528807709151501
aF4.874983651098205
aF-7.304697969560095
asS'ts_p'
p19
(lp20
Fnan
aF1444034503.194833
aF1444034507.240971
aF1444034511.16026
asS'choiceR'
p21
(lp22
Fnan
acnumpy.core.multiarray
scalar
p23
(cnumpy
dtype
p24
(S'f8'
p25
I0
I1
tp26
Rp27
(I3
S'<'
p28
NNNI-1
I-1
I0
tp29
bS'X\xcc\xc8x\xa7\x19\xf8\xbf'
p30
tp31
Rp32
ag23
(g27
S'\xe8\x9cc\xd0\xbc\xd6\xe4\xbf'
p33
tp34
Rp35
ag23
(g27
S'\x92\x1f)`\xebh\r\xc0'
p36
tp37
Rp38
asS'ts_b'
p39
(lp40
Fnan
aF1444034499.960344
aF1444034505.421517
aF1444034509.488232
asS'MT'
p41
(lp42
Fnan
aF0.6534490585327148
aF0.7424089908599854
aF0.5874819755554199
asS'ts_f'
p43
(lp44
Fnan
aF1444034502.193507
aF1444034506.22542
aF1444034510.140561
asS'ts_d'
p45
(lp46
Fnan
aF1444034504.228779
aF1444034508.274206
aF1444034512.190135
asS'ts_e'
p47
(lp48
Fnan
aF1444034505.408907
aF1444034509.474064
aF1444034513.239292
asS'choice_x'
p49
(lp50
Fnan
ag23
(g27
S'\xc8\x81z\x16}\xcb\xe4?'
p51
tp52
Rp53
ag23
(g27
S'`\x1c\xf1\x11%\xca\xc3\xbf'
p54
tp55
Rp56
ag23
(g27
S'\xd4\x880k\x8c\x87\r\xc0'
p57
tp58
Rp59
asS'choice_y'
p60
(lp61
Fnan
ag23
(g27
S'pX\xf0H\xdd~\xfa?'
p62
tp63
Rp64
ag23
(g27
S'\xe0~qE\x1d\x13\xed?'
p65
tp66
Rp67
ag23
(g27
S'\x9c\xecr\x18C`\xf2\xbf'
p68
tp69
Rp70
assS'inext_trial'
p71
I4
sS'trial_list'
p72
(lp73
(dp74
S'ring2'
p75
F11.4
sS'ring1'
p76
F11.4
sS'delay'
p77
F0.0
sS'angle1'
p78
F212.0
sS'angle2'
p79
F200.0
sS'type'
p80
F1.0
sa(dp81
g75
F8.0
sg76
F8.0
sg77
F0.0
sg78
F40.0
sg79
F24.0
sg80
F1.0
sa(dp82
g75
F11.4
sg76
F8.0
sg77
F0.0
sg78
F57.0
sg79
F57.0
sg80
F3.0
sag74
asS'dir'
p83
Vsubjects_behavior/Subject_1
p84
sS'subject'
p85
VSubject_1
p86
sb.