ccopy_reg
_reconstructor
p0
(cTrialHandler2
TrialHandler2
p1
c__builtin__
object
p2
Ntp3
Rp4
(dp5
S'n_trials'
p6
I41
sS'log_path'
p7
Vsubjects_behavior/marcpl_session1_run3/marcpl_session1_run3
p8
sS'data_dict'
p9
(dp10
S'RT'
p11
(lp12
F0.0005037784576416016
aF0.0002529621124267578
aF0.0004298686981201172
aF0.0003838539123535156
aF0.0002551078796386719
aF0.00037288665771484375
aF0.0004570484161376953
aF0.00024318695068359375
aF0.000286102294921875
aF0.0004038810729980469
aF0.0004329681396484375
aF0.00041103363037109375
aF0.0002598762512207031
aF0.0003597736358642578
aF0.0002779960632324219
aF0.00043010711669921875
aF0.0004551410675048828
aF0.0002529621124267578
aF0.0005981922149658203
aF0.0004239082336425781
aF0.00020813941955566406
aF0.0004630088806152344
aF0.0003600120544433594
aF0.0003559589385986328
aF0.0006020069122314453
aF0.0002570152282714844
aF0.00022792816162109375
aF0.00024509429931640625
aF0.00025010108947753906
aFnan
aF0.0003681182861328125
aF0.0002899169921875
aF0.00040793418884277344
aF0.0002760887145996094
aF0.0003161430358886719
aF0.00028395652770996094
aF0.0004980564117431641
aF0.00024700164794921875
aF0.00023484230041503906
aF0.00034999847412109375
aF0.00448298454284668
asS'ts_r'
p13
(lp14
F1444038548.010781
aF1444038555.025403
aF1444038561.523205
aF1444038567.308153
aF1444038573.719157
aF1444038579.384591
aF1444038585.182696
aF1444038594.495342
aF1444038601.028878
aF1444038607.357921
aF1444038613.289068
aF1444038618.655728
aF1444038628.084129
aF1444038636.18143
aF1444038643.095981
aF1444038652.909434
aF1444038662.489592
aF1444038671.736211
aF1444038677.500934
aF1444038683.965727
aF1444038689.713745
aF1444038695.396283
aF1444038701.243284
aF1444038706.37632
aF1444038711.856342
aF1444038720.420003
aF1444038729.220067
aF1444038739.884726
aF1444038746.29632
aFnan
aF1444038759.508335
aF1444038765.70495
aF1444038774.818528
aF1444038784.715224
aF1444038791.063113
aF1444038797.277726
aF1444038802.525968
aF1444038811.908237
aF1444038821.669758
aF1444038827.720268
aF1444038834.716477
asS'fixated'
p15
(lp16
I1
aI1
aI1
aI1
aI1
aI1
aI1
aI1
aI1
aI1
aI1
aI1
aI1
aI1
aI1
aI1
aI1
aI1
aI1
aI1
aI1
aI1
aI1
aI1
aI1
aI1
aI1
aI1
aI1
aI0
aI1
aI1
aI1
aI1
aI1
aI1
aI1
aI1
aI1
aI1
aI1
asS'choiceAngle'
p17
(lp18
F1.8718089581471702
aF-2.9440038404665856
aF4.339396329170214
aF2.1466256596466664
aF-3.674349669573161
aF-0.8844915700530578
aF-2.5835298091170245
aF6.414601807339707
aF-2.6495059314496174
aF-1.1275917025117224
aF-1.7602253709598585
aF0.04742635919952676
aF-6.582162795867205
aF11.217379159029221
aF10.59365376669097
aF-5.130102354155952
aF10.07589633483829
aF-4.984942551453486
aF11.292082514133803
aF-1.6216700266445514
aF3.0665843162298927
aF-1.6849229871056295
aF-4.358493926047231
aF2.932773218509162
aF1.1149965074572776
aF4.837942390087001
aF2.0
aF-8.020000403689032
aF7.667824903700055
aFnan
aF1.3766674749095387
aF8.499280531147797
aF-4.666199970183158
aF-15.655740714645589
aF-2.0271094140286294
aF1.98302196928082
aF-6.4640819013822295
aF9.573664054102522
aF0.4348504000300011
aF-6.8047590903013315
aF-4.271140701989992
asS'ts_p'
p19
(lp20
F1444038543.9133
aF1444038553.959086
aF1444038560.458696
aF1444038566.238439
aF1444038572.669227
aF1444038578.35078
aF1444038584.115533
aF1444038590.430242
aF1444038599.96158
aF1444038606.291405
aF1444038612.222746
aF1444038617.62143
aF1444038623.98598
aF1444038632.082822
aF1444038642.029669
aF1444038648.843936
aF1444038658.390907
aF1444038667.637633
aF1444038676.434688
aF1444038682.882517
aF1444038688.632128
aF1444038694.332354
aF1444038700.176982
aF1444038705.325218
aF1444038710.79008
aF1444038716.321413
aF1444038725.118457
aF1444038735.814857
aF1444038745.26407
aFnan
aF1444038755.408494
aF1444038764.638594
aF1444038770.720681
aF1444038780.616598
aF1444038789.980139
aF1444038796.245941
aF1444038801.494321
aF1444038807.807725
aF1444038817.604408
aF1444038826.651431
aF1444038833.655629
asS'choiceR'
p21
(lp22
cnumpy.core.multiarray
scalar
p23
(cnumpy
dtype
p24
(S'f8'
p25
I0
I1
tp26
Rp27
(I3
S'<'
p28
NNNI-1
I-1
I0
tp29
bS'\x0051\x8fZp\xa1?'
p30
tp31
Rp32
ag23
(g27
S'\xe0y\xab\x96\x8e\x91\xf1\xbf'
p33
tp34
Rp35
ag23
(g27
S'\xack\xc8\x8f\xe3\xbe\xfa\xbf'
p36
tp37
Rp38
ag23
(g27
S'\xf8\x87l\x07B/\xf9\xbf'
p39
tp40
Rp41
ag23
(g27
S'(\xd5\xe5\xc6\xfe\xda\xf1\xbf'
p42
tp43
Rp44
ag23
(g27
S'\xe0\xee\xe1-b\\\xf4\xbf'
p45
tp46
Rp47
ag23
(g27
S'P\x07V\xfa\x1f\xc9\xf8\xbf'
p48
tp49
Rp50
ag23
(g27
S' \x8ct\x01!\x86\xee\xbf'
p51
tp52
Rp53
ag23
(g27
S'X\x94d*\xc9\xc1\xf4\xbf'
p54
tp55
Rp56
ag23
(g27
S'\xc8I\x12w\x9eK\xff\xbf'
p57
tp58
Rp59
ag23
(g27
S'\x94\\\xeb\xd4\xe1\x95\xf7\xbf'
p60
tp61
Rp62
ag23
(g27
S'\xf0\xd3\x03\xc16k\x05\xc0'
p63
tp64
Rp65
ag23
(g27
S'\x0c\xa7)\x15hD\x01\xc0'
p66
tp67
Rp68
ag23
(g27
S'X\xb3\x98\x02na\xfd\xbf'
p69
tp70
Rp71
ag23
(g27
S'~\x91~\xcesC\x01\xc0'
p72
tp73
Rp74
ag23
(g27
S'\x00\x00\x00\x00\x00\x88\xf6\xbf'
p75
tp76
Rp77
ag23
(g27
S'\xdc:\xfa\x17\xfd\xe7\xfc\xbf'
p78
tp79
Rp80
ag23
(g27
S'\x00\xe83\xa9\x868\xe7?'
p81
tp82
Rp83
ag23
(g27
S'\x0c\x1c\xabZ}\xc7\xfd\xbf'
p84
tp85
Rp86
ag23
(g27
S'\xf0OQ\xef+*\xf8\xbf'
p87
tp88
Rp89
ag23
(g27
S'P\xe1\xf9R[\x03\xf5\xbf'
p90
tp91
Rp92
ag23
(g27
S'\xa4k\xd0\x9d\n\x96\x01\xc0'
p93
tp94
Rp95
ag23
(g27
S'\x18\x9eU\x0c\xf2L\xfa\xbf'
p96
tp97
Rp98
ag23
(g27
S'\x80\xc1\x1a\x0c\xe8\xbc\xfc\xbf'
p99
tp100
Rp101
ag23
(g27
S'\xf8\xebY\x0114\xf8\xbf'
p102
tp103
Rp104
ag23
(g27
S'0G\x93_\xc9\x9c\xec\xbf'
p105
tp106
Rp107
ag23
(g27
S'\xd0yR\xab\xdf\x15\xe4\xbf'
p108
tp109
Rp110
ag23
(g27
S'\x90\x02\x1e\x08^\x08\xf6\xbf'
p111
tp112
Rp113
ag23
(g27
S'd\xe1F\x12\x07\xe6\xf9\xbf'
p114
tp115
Rp116
aFnan
ag23
(g27
S'\xe07\xd8\xbdG\x98\xf2\xbf'
p117
tp118
Rp119
ag23
(g27
S'\xc4k\xc4\xb4\x13\xd2\x02\xc0'
p120
tp121
Rp122
ag23
(g27
S' \n\x9aPQ\xf1\xeb\xbf'
p123
tp124
Rp125
ag23
(g27
S'\x08\xba\x9e\x99T3\xf3\xbf'
p126
tp127
Rp128
ag23
(g27
S'$\xf8-y\x8a\xba\xf9\xbf'
p129
tp130
Rp131
ag23
(g27
S'xH\xfe\x06v\xe6\xef\xbf'
p132
tp133
Rp134
ag23
(g27
S'\x00d\xe2]Q\xbb\xe9\xbf'
p135
tp136
Rp137
ag23
(g27
S'\xc0\x18\xfa\x86\xb07\xdd\xbf'
p138
tp139
Rp140
ag23
(g27
S'@o\xe8\x92\xf1\x11\xcc\xbf'
p141
tp142
Rp143
ag23
(g27
S' k\xaa\xde\xeaV\xe2\xbf'
p144
tp145
Rp146
ag23
(g27
S'\x00\xb4\x84g*\xe0\x88?'
p147
tp148
Rp149
asS'ts_b'
p150
(lp151
F1444038533.50135
aF1444038550.556783
aF1444038557.842251
aF1444038563.502204
aF1444038569.238024
aF1444038575.898762
aF1444038581.26288
aF1444038587.412026
aF1444038596.858229
aF1444038603.573601
aF1444038609.253866
aF1444038614.94599
aF1444038620.950901
aF1444038629.814369
aF1444038638.363162
aF1444038645.679807
aF1444038655.754758
aF1444038664.985532
aF1444038673.834726
aF1444038679.947526
aF1444038686.478368
aF1444038691.810434
aF1444038697.542152
aF1444038702.873517
aF1444038708.189393
aF1444038713.785789
aF1444038722.550952
aF1444038732.696894
aF1444038742.310078
aFnan
aF1444038753.509654
aF1444038761.686352
aF1444038767.650232
aF1444038777.883057
aF1444038787.210557
aF1444038793.576349
aF1444038799.166589
aF1444038805.72152
aF1444038814.635433
aF1444038824.199323
aF1444038831.017739
asS'MT'
p152
(lp153
F2.532649040222168
aF2.7994651794433594
aF1.9658730030059814
aF1.9124619960784912
aF2.1661040782928467
aF1.865097999572754
aF2.2152578830718994
aF2.349642038345337
aF2.5305869579315186
aF1.8823699951171875
aF1.6329948902130127
aF2.281251907348633
aF1.7167079448699951
aF2.16628098487854
aF2.5661120414733887
aF2.8323888778686523
aF2.482487916946411
aF2.0833160877227783
aF2.4327120780944824
aF2.4997270107269287
aF2.082611083984375
aF2.131588935852051
aF1.6161270141601562
aF1.798841953277588
aF1.9157299995422363
aF2.1168289184570312
aF3.4629311561584473
aF2.4117980003356934
aF2.0145490169525146
aFnan
aF2.1645209789276123
aF1.9327080249786377
aF3.04902982711792
aF2.4826500415802
aF2.4998271465301514
aF1.8663980960845947
aF3.1821651458740234
aF2.714240074157715
aF2.5158448219299316
aF3.284416913986206
aF2.5441060066223145
asS'ts_f'
p154
(lp155
F1444038542.896529
aF1444038552.943148
aF1444038559.441238
aF1444038565.223049
aF1444038571.653461
aF1444038577.335163
aF1444038583.099747
aF1444038589.414306
aF1444038598.944496
aF1444038605.277557
aF1444038611.190476
aF1444038616.605784
aF1444038622.969977
aF1444038631.067054
aF1444038641.013642
aF1444038647.828262
aF1444038657.375007
aF1444038666.622032
aF1444038675.418865
aF1444038681.866738
aF1444038687.616542
aF1444038693.329604
aF1444038699.161201
aF1444038704.309151
aF1444038709.775661
aF1444038715.3057
aF1444038724.102736
aF1444038734.799157
aF1444038744.246228
aFnan
aF1444038754.392532
aF1444038763.622867
aF1444038769.704371
aF1444038779.60066
aF1444038788.947697
aF1444038795.229209
aF1444038800.477276
aF1444038806.791809
aF1444038816.588667
aF1444038825.635375
aF1444038832.633311
asS'ts_d'
p156
(lp157
F1444038544.945361
aF1444038554.994026
aF1444038561.489686
aF1444038567.240118
aF1444038573.672252
aF1444038579.350843
aF1444038585.148441
aF1444038591.463194
aF1444038600.993391
aF1444038607.324583
aF1444038613.257245
aF1444038618.621681
aF1444038625.020284
aF1444038633.116894
aF1444038643.067997
aF1444038649.84676
aF1444038659.423848
aF1444038668.67144
aF1444038677.467869
aF1444038683.918649
aF1444038689.66414
aF1444038695.364243
aF1444038701.210085
aF1444038706.328236
aF1444038711.822817
aF1444038717.354565
aF1444038726.151634
aF1444038736.814928
aF1444038746.264255
aFnan
aF1444038756.441318
aF1444038765.672029
aF1444038771.753056
aF1444038781.649734
aF1444038791.016153
aF1444038797.246107
aF1444038802.494813
aF1444038808.840728
aF1444038818.604646
aF1444038827.684375
aF1444038834.68182
asS'ts_e'
p158
(lp159
F1444038550.543914
aF1444038557.825124
aF1444038563.489513
aF1444038569.221004
aF1444038575.88552
aF1444038581.250067
aF1444038587.398414
aF1444038596.845234
aF1444038603.559756
aF1444038609.2407
aF1444038614.9225
aF1444038620.937393
aF1444038629.801101
aF1444038638.348075
aF1444038645.662377
aF1444038655.742258
aF1444038664.972542
aF1444038673.819783
aF1444038679.934248
aF1444038686.465881
aF1444038691.796568
aF1444038697.528339
aF1444038702.859775
aF1444038708.175524
aF1444038713.772683
aF1444038722.537091
aF1444038732.683228
aF1444038742.296773
aF1444038748.311122
aFnan
aF1444038761.673227
aF1444038767.637953
aF1444038777.867973
aF1444038787.198154
aF1444038793.563261
aF1444038799.144411
aF1444038805.708638
aF1444038814.622727
aF1444038824.185842
aF1444038831.005045
aF1444038837.265075
asS'choice_x'
p160
(lp161
g23
(g27
S'\x00!\xd7\x1f\xe7$\xc6?'
p162
tp163
Rp164
ag23
(g27
S'x\xed\xf5E\x12\xec\xe0\xbf'
p165
tp166
Rp167
ag23
(g27
S'\x14\xa56\x0b\xd7\xfc\xfa\xbf'
p168
tp169
Rp170
ag23
(g27
S'\xe0\xc4\x1a\xd8\x08\xc3\xef?'
p171
tp172
Rp173
ag23
(g27
S'\xb8\x01\x80Xc\x01\xf4\xbf'
p174
tp175
Rp176
ag23
(g27
S'\xb8^\x10\xb7$\xbc\xed\xbf'
p177
tp178
Rp179
ag23
(g27
S'\x00\xe6\x1f\x9c>\xcc\xea\xbf'
p180
tp181
Rp182
ag23
(g27
S'\xa0y\xe7\xcf\xcc\x13\xc3?'
p183
tp184
Rp185
ag23
(g27
S'\x00\x15\x85\x1c\xe2\xa9\xe8\xbf'
p186
tp187
Rp188
ag23
(g27
S'`/\x88[\x12^\xf6?'
p189
tp190
Rp191
ag23
(g27
S'p\xbf\xb8\xa2\x8e\x91\xf5\xbf'
p192
tp193
Rp194
ag23
(g27
S'\x10\xc3e\xe3\xa7\xac\xfd?'
p195
tp196
Rp197
ag23
(g27
S'\xe0\x1a=\xb3R\\\xd9\xbf'
p198
tp199
Rp200
ag23
(g27
S'\x80\x8f#\xf7y[\xb4\xbf'
p201
tp202
Rp203
ag23
(g27
S' \xd1\x1fA\x88\xce\xd7?'
p204
tp205
Rp206
ag23
(g27
S'\\/\x88[\x12^\xf6\xbf'
p207
tp208
Rp209
ag23
(g27
S'\x08\xd3\x90\xc1\x7f\n\x01@'
p210
tp211
Rp212
ag23
(g27
S'\xb4\x83\x08|;\x1b\xf0\xbf'
p213
tp214
Rp215
ag23
(g27
S'\x00\xdaA\x04\xbe\x9d\x85\xbf'
p216
tp217
Rp218
ag23
(g27
S'\xe0p\x84\xd2R2\xf4\xbf'
p219
tp220
Rp221
ag23
(g27
S'd\xad\xd4\x14\x81\xcd\xf4?'
p222
tp223
Rp224
ag23
(g27
S'\x08T\x96\x05\xb6\xc0\xf7\xbf'
p225
tp226
Rp227
ag23
(g27
S'h\x85\xa6X\xa8\xa2\xf0\xbf'
p228
tp229
Rp230
ag23
(g27
S'\x98l\xd32\x8fL\xe5?'
p231
tp232
Rp233
ag23
(g27
S'\xa8?*Q\xb9\xa2\xec?'
p234
tp235
Rp236
ag23
(g27
S"\xa8\x11a\xd6\x18'\xf4\xbf"
p237
tp238
Rp239
ag23
(g27
S'\x10\xe6\x1f\x9c>\x0c\xe7?'
p240
tp241
Rp242
ag23
(g27
S'\x90M4\x9e\xf3\xde\xd9?'
p243
tp244
Rp245
ag23
(g27
S'\xe4$\xf7\xc6\xfe=\xfb\xbf'
p246
tp247
Rp248
aFnan
ag23
(g27
S'\x88\xf2&\xa5\xb3|\xf0?'
p249
tp250
Rp251
ag23
(g27
S' \x86\xcb\xc6O\xb9\xe7?'
p252
tp253
Rp254
ag23
(g27
S"@\xfa\t'\xf0M\xc3?"
p255
tp256
Rp257
ag23
(g27
S'\xae\x17\xc4-\t\xaf\x02\xc0'
p258
tp259
Rp260
ag23
(g27
S'\x14\xa56\x0b\xd7\xf4\xf3\xbf'
p261
tp262
Rp263
ag23
(g27
S'\x80\xbd nIX\xdf?'
p264
tp265
Rp266
ag23
(g27
S'\xcc\x95:L7\x8f\xf4\xbf'
p267
tp268
Rp269
ag23
(g27
S'P\xe8\x89:\xb0A\xf3?'
p270
tp271
Rp272
ag23
(g27
S'\x00\xae\x9a\xb9j\xb9\xc8?'
p273
tp274
Rp275
ag23
(g27
S'L\x10\xa2\xf5\xa64\xf6\xbf'
p276
tp277
Rp278
ag23
(g27
S'\xf8\xff\xff\xff\xff_\xe0\xbf'
p279
tp280
Rp281
asS'choice_y'
p282
(lp283
g23
(g27
S'\x00Z\xd1\x87\x1f,\xd1?'
p284
tp285
Rp286
ag23
(g27
S'\xdc\x1f\x95\xa8\\!\xf1?'
p287
tp288
Rp289
ag23
(g27
S'\xa0\xd2\xcd\xea\x93Q\xdf?'
p290
tp291
Rp292
ag23
(g27
S'(\x83\xb72\x03B\xf4?'
p293
tp294
Rp295
ag23
(g27
S' \xa7\x0b\xa7L\xf9\xc3\xbf'
p296
tp297
Rp298
ag23
(g27
S'\x18\xf6\x9dA\xbd\x0e\xec\xbf'
p299
tp300
Rp301
ag23
(g27
S'd\xad\xd4\x14\x815\xf6?'
p302
tp303
Rp304
ag23
(g27
S'0\xef\xfc\x99y2\xf4?'
p305
tp306
Rp307
ag23
(g27
S'\xac\xb9\x92\x81\xa7\xfb\xf1?'
p308
tp309
Rp310
ag23
(g27
S'\x08\xfb\xce\xa0^\xff\xf5?'
p311
tp312
Rp313
ag23
(g27
S'\xe8\xb8\x83\xbbv]\xe4\xbf'
p314
tp315
Rp316
ag23
(g27
S'\xf0\x04{\xef#\xe5\xfe?'
p317
tp318
Rp319
ag23
(g27
S'\xf4_\xe0\x89$\xb4\x02@'
p320
tp321
Rp322
ag23
(g27
S'\x04*\xcb\x02[\xf4\x05@'
p323
tp324
Rp325
ag23
(g27
S'J\xddQ\x9b\xf3\xc6\x03@'
p326
tp327
Rp328
ag23
(g27
S'\x18\xf6\x9dA\xbd~\xe5\xbf'
p329
tp330
Rp331
ag23
(g27
S"H\xe1d\xccq'\xe0\xbf"
p332
tp333
Rp334
ag23
(g27
S'@\xa4"1\xbc\x02\xca?'
p335
tp336
Rp337
ag23
(g27
S'\xbc\xd5\xed<\xd4\x87\x02@'
p338
tp339
Rp340
ag23
(g27
S'\x90~\xc2\t|S\xeb\xbf'
p341
tp342
Rp343
ag23
(g27
S'\xf0\xe5\x1f\x9c>L\xe3\xbf'
p344
tp345
Rp346
ag23
(g27
S'\x08\xc7\x8d`Hb\xfa?'
p347
tp348
Rp349
ag23
(g27
S'\x00\xa5\xbd\xb3g\t\xf7?'
p350
tp351
Rp352
ag23
(g27
S'\xf0X\x15*\x90\x08\xfc?'
p353
tp354
Rp355
ag23
(g27
S'\xc4\xf6\xfa"\t\xb6\xf3?'
p356
tp357
Rp358
ag23
(g27
S'pM4\x9e\xf3~\xd0\xbf'
p359
tp360
Rp361
ag23
(g27
S'\x80j\xa5\xa6\x08,\xc4\xbf'
p362
tp363
Rp364
ag23
(g27
S'\xa8\x11a\xd6\x18\xdf\xff?'
p365
tp366
Rp367
ag23
(g27
S'\x90\x1e\xa3\x9f\x12{\xe9?'
p368
tp369
Rp370
aFnan
ag23
(g27
S'\x98 D\xebM\x19\xe3\xbf'
p371
tp372
Rp373
ag23
(g27
S'x\x82\xbd\xf7\x91\x8a\x05@'
p374
tp375
Rp376
ag23
(g27
S'\xe4p\x84\xd2R\xea\xf0\xbf'
p377
tp378
Rp379
ag23
(g27
S"\xa0'\x88\xf9\n\x05\xc3?"
p380
tp381
Rp382
ag23
(g27
S'\xa8t\xb3\xfad\xbc\xf0?'
p383
tp384
Rp385
ag23
(g27
S'\x10\xf6\x9dA\xbd\xfe\xec?'
p386
tp387
Rp388
ag23
(g27
S'\x90\xc0\x81\xa9Xz\xd3?'
p389
tp390
Rp391
ag23
(g27
S'P\nR]s?\xe5?'
p392
tp393
Rp394
ag23
(g27
S'\x00\x82J\xd5K;\xc1\xbf'
p395
tp396
Rp397
ag23
(g27
S'\xe05dk1\r\xd8?'
p398
tp399
Rp400
ag23
(g27
S'\xa0\xca\x84\x85\xae\xa7\xd3\xbf'
p401
tp402
Rp403
assS'inext_trial'
p404
I41
sS'trial_list'
p405
(lp406
(dp407
S'ring2'
p408
F11.4
sS'ring1'
p409
F9.7
sS'delay'
p410
F3.0
sS'angle1'
p411
F322.0
sS'angle2'
p412
F322.0
sS'type'
p413
F3.0
sa(dp414
g408
F11.4
sg409
F9.7
sg410
F0.0
sg411
F138.0
sg412
F138.0
sg413
F3.0
sa(dp415
g408
F8.0
sg409
F8.0
sg410
F0.0
sg411
F148.0
sg412
F160.0
sg413
F2.0
sa(dp416
g408
F11.4
sg409
F9.7
sg410
F0.0
sg411
F41.0
sg412
F41.0
sg413
F3.0
sa(dp417
g408
F11.4
sg409
F9.7
sg410
F0.0
sg411
F213.0
sg412
F213.0
sg413
F3.0
sa(dp418
g408
F-1.0
sg409
F8.0
sg410
F0.0
sg411
F228.0
sg412
F-1.0
sg413
F0.0
sa(dp419
g408
F9.7
sg409
F11.4
sg410
F0.0
sg411
F137.0
sg412
F137.0
sg413
F4.0
sa(dp420
g408
F8.0
sg409
F8.0
sg410
F3.0
sg411
F45.0
sg412
F61.0
sg413
F2.0
sa(dp421
g408
F8.0
sg409
F9.7
sg410
F0.0
sg411
F141.0
sg412
F141.0
sg413
F4.0
sa(dp422
g408
F11.4
sg409
F8.0
sg410
F0.0
sg411
F48.0
sg412
F48.0
sg413
F3.0
sa(dp423
g408
F9.7
sg409
F8.0
sg410
F0.0
sg411
F213.0
sg412
F213.0
sg413
F3.0
sa(dp424
g408
F11.4
sg409
F11.4
sg410
F0.0
sg411
F46.0
sg412
F30.0
sg413
F1.0
sa(dp425
g408
F11.4
sg409
F9.7
sg410
F3.0
sg411
F121.0
sg412
F121.0
sg413
F3.0
sa(dp426
g408
F11.4
sg409
F11.4
sg410
F3.0
sg411
F49.0
sg412
F65.0
sg413
F2.0
sa(dp427
g408
F8.0
sg409
F8.0
sg410
F0.0
sg411
F56.0
sg412
F64.0
sg413
F2.0
sa(dp428
g408
F9.7
sg409
F8.0
sg410
F3.0
sg411
F228.0
sg412
F228.0
sg413
F3.0
sa(dp429
g408
F8.0
sg409
F8.0
sg410
F3.0
sg411
F317.0
sg412
F309.0
sg413
F1.0
sa(dp430
g408
F-1.0
sg409
F8.0
sg410
F3.0
sg411
F301.0
sg412
F-1.0
sg413
F0.0
sa(dp431
g408
F8.0
sg409
F8.0
sg410
F0.0
sg411
F59.0
sg412
F71.0
sg413
F2.0
sa(dp432
g408
F8.0
sg409
F8.0
sg410
F0.0
sg411
F221.0
sg412
F237.0
sg413
F2.0
sa(dp433
g408
F11.4
sg409
F11.4
sg410
F0.0
sg411
F313.0
sg412
F297.0
sg413
F1.0
sa(dp434
g408
F-1.0
sg409
F11.4
sg410
F0.0
sg411
F139.0
sg412
F-1.0
sg413
F0.0
sa(dp435
g408
F-1.0
sg409
F9.7
sg410
F0.0
sg411
F146.0
sg412
F-1.0
sg413
F0.0
sa(dp436
g408
F-1.0
sg409
F11.4
sg410
F0.0
sg411
F54.0
sg412
F-1.0
sg413
F0.0
sa(dp437
g408
F8.0
sg409
F9.7
sg410
F0.0
sg411
F48.0
sg412
F48.0
sg413
F4.0
sa(dp438
g408
F-1.0
sg409
F11.4
sg410
F3.0
sg411
F148.0
sg412
F-1.0
sg413
F0.0
sa(dp439
g408
F11.4
sg409
F11.4
sg410
F3.0
sg411
F317.0
sg412
F325.0
sg413
F2.0
sa(dp440
g408
F9.7
sg409
F11.4
sg410
F3.0
sg411
F122.0
sg412
F122.0
sg413
F4.0
sa(dp441
g408
F8.0
sg409
F8.0
sg410
F0.0
sg411
F128.0
sg412
F136.0
sg413
F2.0
sa(dp442
g408
F11.4
sg409
F11.4
sg410
F0.0
sg411
F46.0
sg412
F38.0
sg413
F1.0
sa(dp443
g408
F-1.0
sg409
F11.4
sg410
F3.0
sg411
F318.0
sg412
F-1.0
sg413
F0.0
sag442
a(dp444
g408
F11.4
sg409
F8.0
sg410
F3.0
sg411
F311.0
sg412
F311.0
sg413
F3.0
sa(dp445
g408
F8.0
sg409
F8.0
sg410
F3.0
sg411
F228.0
sg412
F216.0
sg413
F1.0
sa(dp446
g408
F11.4
sg409
F8.0
sg410
F0.0
sg411
F148.0
sg412
F148.0
sg413
F3.0
sa(dp447
g408
F-1.0
sg409
F8.0
sg410
F0.0
sg411
F48.0
sg412
F-1.0
sg413
F0.0
sa(dp448
g408
F8.0
sg409
F9.7
sg410
F0.0
sg411
F216.0
sg412
F216.0
sg413
F4.0
sa(dp449
g408
F8.0
sg409
F8.0
sg410
F3.0
sg411
F323.0
sg412
F339.0
sg413
F2.0
sa(dp450
g408
F11.4
sg409
F11.4
sg410
F3.0
sg411
F304.0
sg412
F292.0
sg413
F1.0
sa(dp451
g408
F9.7
sg409
F11.4
sg410
F0.0
sg411
F228.0
sg412
F228.0
sg413
F4.0
sa(dp452
g408
F9.7
sg409
F8.0
sg410
F0.0
sg411
F300.0
sg412
F300.0
sg413
F3.0
sasS'dir'
p453
Vsubjects_behavior/marcpl_session1_run3
p454
sS'subject'
p455
Vmarcpl_session1_run3
p456
sb.