ccopy_reg
_reconstructor
p0
(cTrialHandler2
TrialHandler2
p1
c__builtin__
object
p2
Ntp3
Rp4
(dp5
S'n_trials'
p6
I14
sS'log_path'
p7
Vsubjects_behavior/marcpl_session1_trainning/marcpl_session1_trainning
p8
sS'data_dict'
p9
(dp10
S'RT'
p11
(lp12
F7.500348091125488
aF1.042046070098877
aF1.1163098812103271
aFnan
aF0.00024509429931640625
aF0.00041103363037109375
aFnan
aF0.0005090236663818359
aFnan
aFnan
aF0.00020885467529296875
aF0.0003230571746826172
aF0.00030684471130371094
aF0.00023508071899414062
asS'ts_r'
p13
(lp14
F1444036707.075464
aF1444036730.118109
aF1444036741.816319
aFnan
aF1444036769.007962
aF1444036781.983392
aFnan
aF1444036804.093611
aFnan
aFnan
aF1444036823.386229
aF1444036835.535681
aF1444036843.029748
aF1444036854.128287
asS'fixated'
p15
(lp16
I1
aI1
aI1
aI0
aI1
aI1
aI0
aI1
aI0
aI0
aI1
aI1
aI1
aI1
asS'choiceAngle'
p17
(lp18
F-8.364536573097354
aF-0.5794427087973659
aF7.5787105785693925
aFnan
aF-6.800263761878597
aF2.5122243154111317
aFnan
aF-4.656915600476481
aFnan
aFnan
aF7.054844244674534
aF-0.6502998128119515
aF-11.475255089163845
aF0.5431639129721759
asS'ts_p'
p19
(lp20
F1444036706.008901
aF1444036729.054594
aF1444036740.74734
aFnan
aF1444036764.905952
aF1444036777.918104
aFnan
aF1444036799.994003
aFnan
aFnan
aF1444036822.320262
aF1444036831.467093
aF1444036841.9967
aF1444036850.028869
asS'choiceR'
p21
(lp22
cnumpy.core.multiarray
scalar
p23
(cnumpy
dtype
p24
(S'f8'
p25
I0
I1
tp26
Rp27
(I3
S'<'
p28
NNNI-1
I-1
I0
tp29
bS'\xc0i\xf0X\xfc\x86\x07\xc0'
p30
tp31
Rp32
ag23
(g27
S'`&\x18(\x02>\xd5?'
p33
tp34
Rp35
ag23
(g27
S'\x00Mm\xf3\x04\xa5\xaf?'
p36
tp37
Rp38
aFnan
ag23
(g27
S'\xc0\x1e\xb9\xac\xe2\xb1\xb5\xbf'
p39
tp40
Rp41
ag23
(g27
S'`\x18G(\xbd\\\xd5\xbf'
p42
tp43
Rp44
aFnan
ag23
(g27
S'\xf8\xf8K\xcb\x02\x08\x03@'
p45
tp46
Rp47
aFnan
aFnan
ag23
(g27
S'\xb8\x90v.\x18C\xe4\xbf'
p48
tp49
Rp50
ag23
(g27
S'(\xbbXPoO\xf0\xbf'
p51
tp52
Rp53
ag23
(g27
S'\xb0\xe3\xe4\x92l\xe1\xef\xbf'
p54
tp55
Rp56
ag23
(g27
S"\x80}\xbc'0\xd6\xc4\xbf"
p57
tp58
Rp59
asS'ts_b'
p60
(lp61
F1444036695.668816
aF1444036720.184435
aF1444036734.412905
aFnan
aF1444036757.325042
aF1444036773.332862
aFnan
aF1444036795.629234
aFnan
aFnan
aF1444036819.604447
aF1444036826.532521
aF1444036838.345618
aF1444036846.650826
asS'MT'
p62
(lp63
F5.595262765884399
aF3.239511013031006
aF2.213701009750366
aFnan
aF4.312164068222046
aF6.047965049743652
aFnan
aF2.881582021713257
aFnan
aFnan
aF3.1327710151672363
aF2.79726505279541
aF3.6010048389434814
aF8.695004940032959
asS'ts_f'
p64
(lp65
F1444036704.99277
aF1444036728.035076
aF1444036739.731202
aFnan
aF1444036763.890118
aF1444036776.904433
aFnan
aF1444036798.9617
aFnan
aFnan
aF1444036821.305853
aF1444036830.451165
aF1444036840.964578
aF1444036848.99463
asS'ts_d'
p66
(lp67
F1444036707.041949
aF1444036730.083983
aF1444036741.780332
aFnan
aF1444036765.938926
aF1444036778.919212
aFnan
aF1444036801.02721
aFnan
aFnan
aF1444036823.353149
aF1444036832.469944
aF1444036842.999046
aF1444036851.060533
asS'ts_e'
p68
(lp69
F1444036720.171067
aF1444036734.399671
aF1444036745.146339
aFnan
aF1444036773.320374
aF1444036788.031775
aFnan
aF1444036806.975707
aFnan
aFnan
aF1444036826.519206
aF1444036838.333273
aF1444036846.631071
aF1444036862.823538
asS'choice_x'
p70
(lp71
g23
(g27
S'\xd4\x880k\x8c\xc7\t\xc0'
p72
tp73
Rp74
ag23
(g27
S'\xe0\xf8\x15\xa6\x0b\x92\xc9\xbf'
p75
tp76
Rp77
ag23
(g27
S'\x18G|D\x89b\xec\xbf'
p78
tp79
Rp80
aFnan
ag23
(g27
S'\xa0\xd0\x13u`\xa3\xe5\xbf'
p81
tp82
Rp83
ag23
(g27
S'\xc0\xfd\xe2\x8a:\x06\xde?'
p84
tp85
Rp86
aFnan
ag23
(g27
S'\xc8\xd3\x87[\x918\x01\xc0'
p87
tp88
Rp89
aFnan
aFnan
ag23
(g27
S'\xd0\x0e"\xf0\xed\xec\xda\xbf'
p90
tp91
Rp92
ag23
(g27
S'\xe0\xb1*T 1\xe8?'
p93
tp94
Rp95
ag23
(g27
S"\xe0\xaf\xa6\xe9'\xbd\xdc?"
p96
tp97
Rp98
ag23
(g27
S'\xc0\xc7!\xc1\x83\xdd\xc8?'
p99
tp100
Rp101
asS'choice_y'
p102
(lp103
g23
(g27
S'8\xd9\xe50\x86\x00\xe2\xbf'
p104
tp105
Rp106
ag23
(g27
S'@\x9e>\xdc\x8a\xc4\xd1\xbf'
p107
tp108
Rp109
ag23
(g27
S'\xe0~qE\x1d\xc3\xe2?'
p110
tp111
Rp112
aFnan
ag23
(g27
S'H\nR]s?\xe5?'
p113
tp114
Rp115
ag23
(g27
S'\x009\xe2#J\x94\xb8?'
p116
tp117
Rp118
aFnan
ag23
(g27
S'\x18\xbf\xc2tA\x12\xf4?'
p119
tp120
Rp121
aFnan
aFnan
ag23
(g27
S'x\xab\xdby\xa8\xe7\xf0?'
p122
tp123
Rp124
ag23
(g27
S'\xb0l\xd32\x8f<\xe6\xbf'
p125
tp126
Rp127
ag23
(g27
S'\x84\xe3F0$\xd1\x02@'
p128
tp129
Rp130
ag23
(g27
S'\x00\x8a\x0bH]\xfc\x90\xbf'
p131
tp132
Rp133
assS'inext_trial'
p134
I14
sS'trial_list'
p135
(lp136
(dp137
S'ring2'
p138
F11.4
sS'ring1'
p139
F11.4
sS'delay'
p140
F0.0
sS'angle1'
p141
F212.0
sS'angle2'
p142
F200.0
sS'type'
p143
F1.0
sa(dp144
g138
F8.0
sg139
F8.0
sg140
F0.0
sg141
F40.0
sg142
F24.0
sg143
F1.0
sa(dp145
g138
F11.4
sg139
F8.0
sg140
F0.0
sg141
F57.0
sg142
F57.0
sg143
F3.0
sa(dp146
g138
F11.4
sg139
F8.0
sg140
F3.0
sg141
F310.0
sg142
F310.0
sg143
F3.0
sa(dp147
g138
F-1.0
sg139
F8.0
sg140
F3.0
sg141
F217.0
sg142
F-1.0
sg143
F0.0
sa(dp148
g138
F8.0
sg139
F8.0
sg140
F3.0
sg141
F327.0
sg142
F319.0
sg143
F1.0
sa(dp149
g138
F9.7
sg139
F11.4
sg140
F3.0
sg141
F324.0
sg142
F324.0
sg143
F4.0
sag146
a(dp150
g138
F8.0
sg139
F8.0
sg140
F0.0
sg141
F59.0
sg142
F47.0
sg143
F1.0
sa(dp151
g138
F11.4
sg139
F11.4
sg140
F0.0
sg141
F139.0
sg142
F155.0
sg143
F2.0
sag150
ag149
ag151
a(dp152
g138
F11.4
sg139
F11.4
sg140
F3.0
sg141
F322.0
sg142
F334.0
sg143
F2.0
sasS'dir'
p153
Vsubjects_behavior/marcpl_session1_trainning
p154
sS'subject'
p155
Vmarcpl_session1_trainning
p156
sb.