ccopy_reg
_reconstructor
p0
(c__main__
TrialHandler2
p1
c__builtin__
object
p2
Ntp3
Rp4
(dp5
S'n_trials'
p6
I1
sS'log_path'
p7
S'subjects/subject_name_0'
p8
sS'data_dict'
p9
(dp10
S'RT'
p11
(lp12
F0.5816528797149658
asS'ts_r'
p13
(lp14
F1442686117.29866
asS'fixated'
p15
(lp16
I1
asS'choiceAngle'
p17
(lp18
F-36.216073587790746
asS'ts_p'
p19
(lp20
F1442686116.272841
asS'choiceR'
p21
(lp22
cnumpy.core.multiarray
scalar
p23
(cnumpy
dtype
p24
(S'f8'
p25
I0
I1
tp26
Rp27
(I3
S'<'
p28
NNNI-1
I-1
I0
tp29
bS'N9\xb2\x1d7\xd73\xc0'
p30
tp31
Rp32
asS'ts_b'
p33
(lp34
F1442686113.776009
asS'MT'
p35
(lp36
F0.13619399070739746
asS'ts_f'
p37
(lp38
F1442686115.26938
asS'ts_d'
p39
(lp40
F1442686117.282141
asS'ts_e'
p41
(lp42
F1442686118.01651
asS'choice_x'
p43
(lp44
g23
(g27
S'\x8c\xf1$]Q\x0c\xf1\xbf'
p45
tp46
Rp47
asS'choice_y'
p48
(lp49
g23
(g27
S'\xfc\xc6+\xaa\xa6w\x18\xc0'
p50
tp51
Rp52
assS'inext_trial'
p53
I1
sS'trial_list'
p54
(lp55
(dp56
S'delay'
p57
F0.0
sS'angle1'
p58
F296.0
sS'angle3'
p59
F113.0
sS'angle2'
p60
F306.0
sS'ring3'
p61
F9.0
sS'type'
p62
F3.0
sS'ring2'
p63
F10.0
sS'ring1'
p64
F10.0
sasS'dir'
p65
S'subjects'
p66
sS'subject'
p67
S'subject_name'
p68
sb.