ccopy_reg
_reconstructor
p0
(cTrialHandler2
TrialHandler2
p1
c__builtin__
object
p2
Ntp3
Rp4
(dp5
S'n_trials'
p6
I2
sS'log_path'
p7
Vsubjects/Subject_1_0
p8
sS'data_dict'
p9
(dp10
S'RT'
p11
(lp12
F1.440269947052002
aF2.3320651054382324
asS'ts_r'
p13
(lp14
F1443093664.477738
aF1443093670.670418
asS'fixated'
p15
(lp16
I1
aI1
asS'choiceAngle'
p17
(lp18
F193.67728002179643
aF-182.36360303094338
asS'ts_p'
p19
(lp20
F1443093660.438075
aF1443093669.636871
asS'choiceR'
p21
(lp22
cnumpy.core.multiarray
scalar
p23
(cnumpy
dtype
p24
(S'f8'
p25
I0
I1
tp26
Rp27
(I3
S'<'
p28
NNNI-1
I-1
I0
tp29
bS"t\xdf\x9e;\xae'\x07\xc0"
p30
tp31
Rp32
ag23
(g27
S'o\x96\xfa\x93\xdeJ\x12\xc0'
p33
tp34
Rp35
asS'ts_b'
p36
(lp37
F1443093658.328624
aF1443093667.224299
asS'MT'
p38
(lp39
F1.3046848773956299
aF0.29348206520080566
asS'ts_f'
p40
(lp41
F1443093659.430352
aF1443093668.623998
asS'ts_d'
p42
(lp43
F1443093661.453091
aF1443093670.654089
asS'ts_e'
p44
(lp45
F1443093667.222697
aF1443093673.295971
asS'choice_x'
p46
(lp47
g23
(g27
S'M\xb2\x96\x88c\xcf\x19\xc0'
p48
tp49
Rp50
ag23
(g27
S'\x9d\xc3\xb6\xa8\xeb\xd8\x1b@'
p51
tp52
Rp53
asS'choice_y'
p54
(lp55
g23
(g27
S'd8\xa4\x11\xb1m/@'
p56
tp57
Rp58
ag23
(g27
S'~\xe3\x15U\xd3\x86+\xc0'
p59
tp60
Rp61
assS'inext_trial'
p62
I2
sS'trial_list'
p63
(lp64
(dp65
S'delay'
p66
F3.0
sS'angle1'
p67
F118.0
sS'angle3'
p68
F278.0
sS'angle2'
p69
F118.0
sS'ring3'
p70
F9.0
sS'type'
p71
F6.0
sS'ring2'
p72
F8.0
sS'ring1'
p73
F10.0
sa(dp74
g66
F0.0
sg67
F296.0
sg68
F113.0
sg69
F306.0
sg70
F9.0
sg71
F3.0
sg72
F10.0
sg73
F10.0
sasS'dir'
p75
S'subjects'
p76
sS'subject'
p77
VSubject_1
p78
sb.