ccopy_reg
_reconstructor
p0
(cTrialHandler2
TrialHandler2
p1
c__builtin__
object
p2
Ntp3
Rp4
(dp5
S'n_trials'
p6
I6
sS'log_path'
p7
Vsubjects/Subject_1_0
p8
sS'data_dict'
p9
(dp10
S'RT'
p11
(lp12
F1.7239248752593994
aF1.617840051651001
aF1.7072010040283203
aF0.8740088939666748
aF1.777061939239502
aF0.5657970905303955
asS'ts_r'
p13
(lp14
F1442845492.50909
aF1442845497.963469
aF1442845503.054001
aF1442845505.991106
aF1442845510.507689
aF1442845515.6144
asS'fixated'
p15
(lp16
I1
aI1
aI1
aI1
aI1
aI1
asS'choiceAngle'
p17
(lp18
F-0.8865817669106981
aF-0.42427558931890985
aF19.426078740099058
aF21.565051177077976
aF96.80652994470447
aF11.69006752597977
asS'ts_p'
p19
(lp20
F1442845488.582128
aF1442845496.935902
aF1442845501.924889
aF1442845505.980263
aF1442845509.80866
aF1442845514.801785
asS'choiceR'
p21
(lp22
cnumpy.core.multiarray
scalar
p23
(cnumpy
dtype
p24
(S'f8'
p25
I0
I1
tp26
Rp27
(I3
S'<'
p28
NNNI-1
I-1
I0
tp29
bS'\x9fj.~\xf6%5\xc0'
p30
tp31
Rp32
ag23
(g27
S'\xe2\x8acZ\xe0\xaa4\xc0'
p33
tp34
Rp35
ag23
(g27
S'Ny\r\x9c7\xc6.\xc0'
p36
tp37
Rp38
ag23
(g27
S'\x95\xa6\x91\xda\x90\xd05\xc0'
p39
tp40
Rp41
ag23
(g27
S"\xd7\xc1\xdd'\xbe\xea3\xc0"
p42
tp43
Rp44
ag23
(g27
S'\xf6@\xdcy\xb8\x843\xc0'
p45
tp46
Rp47
asS'ts_b'
p48
(lp49
F1442845486.031193
aF1442845494.940401
aF1442845499.978141
aF1442845505.137051
aF1442845507.271991
aF1442845512.705133
asS'MT'
p50
(lp51
F0.7057430744171143
aF0.39498186111450195
aF0.3738870620727539
aF0.40422606468200684
aF0.41877102851867676
aF0.46293187141418457
asS'ts_f'
p52
(lp53
F1442845487.574059
aF1442845495.929385
aF1442845500.922289
aF1442845505.97562
aF1442845508.805441
aF1442845513.791243
asS'ts_d'
p54
(lp55
F1442845489.598204
aF1442845497.946881
aF1442845502.936919
aF1442845505.980271
aF1442845510.491305
aF1442845515.595146
asS'ts_e'
p56
(lp57
F1442845494.938766
aF1442845499.976293
aF1442845505.135094
aF1442845507.269346
aF1442845512.703525
aF1442845516.643134
asS'choice_x'
p58
(lp59
g23
(g27
S'\x9ad-\x11\xc7\xce\x02\xc0'
p60
tp61
Rp62
ag23
(g27
S':\x87mQ\xd7\x15\x00@'
p63
tp64
Rp65
ag23
(g27
S'\xc9\x1a\x06!\xf9\xcf\x05@'
p66
tp67
Rp68
ag23
(g27
S'\x1c\x16<R\xb7U\x14@'
p69
tp70
Rp71
ag23
(g27
S'W\x14\xac\x03\xea\xe1!@'
p72
tp73
Rp74
ag23
(g27
S'\x9b\x1f\xec\xc6\xf4\x19\x05@'
p75
tp76
Rp77
asS'choice_y'
p78
(lp79
g23
(g27
S'\xc8pH#bS\x12@'
p80
tp81
Rp82
ag23
(g27
S'\xfc\xc6+\xaa\xa6\xd9\x10\xc0'
p83
tp84
Rp85
ag23
(g27
S'\xb8\xfc\xfbw\x1d\xee\xe6\xbf'
p86
tp87
Rp88
ag23
(g27
S':P\xcf\xa2o\xcf\x17\xc0'
p89
tp90
Rp91
ag23
(g27
S'\xec\xbc\xf3\xdd\xa3\xe8 @'
p92
tp93
Rp94
ag23
(g27
S'|\xe6c\xd6\xbe\x1e\x0f\xc0'
p95
tp96
Rp97
assS'inext_trial'
p98
I6
sS'trial_list'
p99
(lp100
(dp101
S'delay'
p102
F3.0
sS'angle1'
p103
F118.0
sS'angle3'
p104
F278.0
sS'angle2'
p105
F118.0
sS'ring3'
p106
F9.0
sS'type'
p107
F6.0
sS'ring2'
p108
F8.0
sS'ring1'
p109
F10.0
sa(dp110
g102
F0.0
sg103
F296.0
sg104
F113.0
sg105
F306.0
sg106
F9.0
sg107
F3.0
sg108
F10.0
sg109
F10.0
sa(dp111
g102
F3.0
sg103
F294.0
sg104
F108.0
sg105
F294.0
sg106
F8.0
sg107
F5.0
sg108
F9.0
sg109
F8.0
sa(dp112
g102
F3.0
sg103
F310.0
sg104
F124.0
sg105
F124.0
sg106
F10.0
sg107
F0.0
sg108
F9.0
sg109
F8.0
sa(dp113
g102
F3.0
sg103
F14.0
sg104
F201.0
sg105
F14.0
sg106
F8.0
sg107
F6.0
sg108
F9.0
sg109
F10.0
sa(dp114
g102
F0.0
sg103
F293.0
sg104
F115.0
sg105
F293.0
sg106
F10.0
sg107
F5.0
sg108
F10.0
sg109
F9.0
sasS'dir'
p115
S'subjects'
p116
sS'subject'
p117
VSubject_1
p118
sb.