ccopy_reg
_reconstructor
p0
(cTrialHandler2
TrialHandler2
p1
c__builtin__
object
p2
Ntp3
Rp4
(dp5
S'n_trials'
p6
I40
sS'log_path'
p7
Vsubjects_behavior/marcpl_session1_run1/marcpl_session1_run1
p8
sS'data_dict'
p9
(dp10
S'RT'
p11
(lp12
F0.00020599365234375
aF0.0034699440002441406
aF0.0003712177276611328
aF0.00033092498779296875
aF0.0004520416259765625
aF0.00019884109497070312
aF0.0003409385681152344
aF0.0002601146697998047
aF0.0007109642028808594
aF0.00023484230041503906
aF0.00035119056701660156
aF0.00024819374084472656
aF0.0004088878631591797
aF0.00023102760314941406
aF0.00033211708068847656
aF0.0002930164337158203
aF0.0002288818359375
aF0.00034999847412109375
aF0.0003440380096435547
aF0.00025010108947753906
aF0.00023412704467773438
aF0.0004799365997314453
aF0.00023484230041503906
aF0.0002551078796386719
aF0.0002338886260986328
aF0.0006539821624755859
aF0.0003180503845214844
aF0.0006458759307861328
aF0.00021600723266601562
aF0.0004169940948486328
aF0.00035881996154785156
aF0.00039196014404296875
aF0.00035691261291503906
aF0.0003390312194824219
aF0.00038504600524902344
aF0.00043392181396484375
aF0.0004520416259765625
aF0.0004029273986816406
aF0.0003991127014160156
aFnan
asS'ts_r'
p13
(lp14
F1444036993.463082
aF1444037004.392786
aF1444037011.906686
aF1444037019.988384
aF1444037030.752577
aF1444037041.230468
aF1444037049.027869
aF1444037059.790994
aF1444037067.571459
aF1444037078.651101
aF1444037089.347746
aF1444037099.129548
aF1444037106.858616
aF1444037117.055202
aF1444037127.135555
aF1444037136.798441
aF1444037146.778594
aF1444037154.043541
aF1444037163.872699
aF1444037170.958375
aF1444037181.383741
aF1444037190.897048
aF1444037197.828242
aF1444037207.279519
aF1444037217.121592
aF1444037223.253119
aF1444037232.216578
aF1444037238.051231
aF1444037250.428154
aF1444037257.243489
aF1444037267.591184
aF1444037274.730288
aF1444037284.223308
aF1444037293.181189
aF1444037300.301183
aF1444037306.542803
aF1444037312.410852
aF1444037322.647745
aF1444037328.470849
aFnan
asS'fixated'
p15
(lp16
I1
aI1
aI1
aI1
aI1
aI1
aI1
aI1
aI1
aI1
aI1
aI1
aI1
aI1
aI1
aI1
aI1
aI1
aI1
aI1
aI1
aI1
aI1
aI1
aI1
aI1
aI1
aI1
aI1
aI1
aI1
aI1
aI1
aI1
aI1
aI1
aI1
aI1
aI1
aI0
asS'choiceAngle'
p17
(lp18
F0.9016059403424777
aF-12.216364503720172
aF5.993743985823386
aF-6.384385209726446
aF7.73281013120917
aF5.565228578373173
aF-4.077636978533526
aF11.080924186660695
aF6.236101539070006
aF-2.0124051360653255
aF-9.705272056130013
aF23.168078899120474
aF1.7590811269705
aF18.73149613735206
aF-10.974507991471938
aF-14.036243467926482
aF-5.819775163395661
aF1.2986453946739118
aF3.2782619920878915
aF8.726263336072577
aF2.620289750432242
aF4.23290838992051
aF2.7268472589112775
aF-5.189285758264845
aF-1.0534624792202294
aF-1.0935213615225905
aF-5.300513234584635
aF5.194428907734803
aF1.1877310749814143
aF1.9789951844273617
aF0.45547605473753094
aF-5.3579059707168994
aF-6.230937746852376
aF-4.2641720424761544
aF-6.227716390620174
aF5.537291414889609
aF7.868778577307964
aF2.4263359458974563
aF1.4031323742127029
aFnan
asS'ts_p'
p19
(lp20
F1444036992.396775
aF1444037000.32747
aF1444037010.841911
aF1444037018.921138
aF1444037026.652035
aF1444037037.116191
aF1444037047.962546
aF1444037055.692103
aF1444037066.48873
aF1444037074.58606
aF1444037085.250278
aF1444037095.06257
aF1444037105.792468
aF1444037112.956568
aF1444037123.019619
aF1444037132.733106
aF1444037142.713304
aF1444037153.010636
aF1444037159.774294
aF1444037169.920943
aF1444037177.285099
aF1444037186.799052
aF1444037196.745282
aF1444037203.176442
aF1444037213.026156
aF1444037222.187711
aF1444037228.151502
aF1444037236.964974
aF1444037246.314783
aF1444037256.202445
aF1444037263.509088
aF1444037273.670435
aF1444037280.153292
aF1444037289.089956
aF1444037299.249042
aF1444037305.510399
aF1444037311.375222
aF1444037318.54733
aF1444037327.40314
aFnan
asS'choiceR'
p21
(lp22
cnumpy.core.multiarray
scalar
p23
(cnumpy
dtype
p24
(S'f8'
p25
I0
I1
tp26
Rp27
(I3
S'<'
p28
NNNI-1
I-1
I0
tp29
bS'\xc0\xd75p\xee\xa7\xd6?'
p30
tp31
Rp32
ag23
(g27
S'\x80Y\xa6\xe0\xeb\n\xb9?'
p33
tp34
Rp35
ag23
(g27
S' \x8dOGd\x19\xe6\xbf'
p36
tp37
Rp38
ag23
(g27
S'\xd0J\x1eKF\xc1\xe4\xbf'
p39
tp40
Rp41
ag23
(g27
S'h\x82\xfc\xe7\xd8\x84\x04\xc0'
p42
tp43
Rp44
ag23
(g27
S'\x80O\x92R\x0e\xa2\xd4\xbf'
p45
tp46
Rp47
ag23
(g27
S'\xc0\xf0\x9e\xed\xe0\xc7\xf5\xbf'
p48
tp49
Rp50
ag23
(g27
S'\x90L\xc2-\xfe\x1f\xe9?'
p51
tp52
Rp53
ag23
(g27
S'\xa0\xe8<\xaf\xee\x8a\xcd\xbf'
p54
tp55
Rp56
ag23
(g27
S'\x80\xf8\xf9\xaa\x92\x96\xdc\xbf'
p57
tp58
Rp59
ag23
(g27
S'@\xd1ox@\xe1\xcd\xbf'
p60
tp61
Rp62
ag23
(g27
S'\xa0\xd9\t\x02>\xd9\xde\xbf'
p63
tp64
Rp65
ag23
(g27
S'@\xd9\x19u\x86I\xc1\xbf'
p66
tp67
Rp68
ag23
(g27
S'\x80\x89m\xb6\xd8\x91\xab\xbf'
p69
tp70
Rp71
ag23
(g27
S' \xb9\x9cel"\xfa\xbf'
p72
tp73
Rp74
ag23
(g27
S"(\xfe`'%g\xf5\xbf"
p75
tp76
Rp77
ag23
(g27
S'\xc0%\xe8j\xd9\x92\xf3\xbf'
p78
tp79
Rp80
ag23
(g27
S'\xe0\x01\xa8&\xa9\xe1\xed\xbf'
p81
tp82
Rp83
ag23
(g27
S'`\xc9$p\x1e\xb0\xe9\xbf'
p84
tp85
Rp86
ag23
(g27
S'\xc0C<\x1c\xb3\x8d\xc6\xbf'
p87
tp88
Rp89
ag23
(g27
S'\x80\xdel2W\x10\xf3\xbf'
p90
tp91
Rp92
ag23
(g27
S'\x00\xeas\x80xR\xf3\xbf'
p93
tp94
Rp95
ag23
(g27
S'\xa8\xf4\xba3\xa5{\xe7\xbf'
p96
tp97
Rp98
ag23
(g27
S'\x00t\xdfq\xd5e\x9b?'
p99
tp100
Rp101
ag23
(g27
S'\xc0\xb4\xc1\x0b\xa4\xf5\xe3\xbf'
p102
tp103
Rp104
ag23
(g27
S'PzU\xf2\xde\x97\xfa\xbf'
p105
tp106
Rp107
ag23
(g27
S'8&\xab<4J\xf6\xbf'
p108
tp109
Rp110
ag23
(g27
S'T\x7f\xe6\xad\xeb\x05\x03\xc0'
p111
tp112
Rp113
ag23
(g27
S"`\xa5\xe9'\x18\x08\xdb?"
p114
tp115
Rp116
ag23
(g27
S'@m\x98a\xd9\xf9\xed\xbf'
p117
tp118
Rp119
ag23
(g27
S'\x00<\xa2\xc7F\x90\xba\xbf'
p120
tp121
Rp122
ag23
(g27
S' \x1dV51k\xee\xbf'
p123
tp124
Rp125
ag23
(g27
S'\\\xb1\x08P1\x19\xfd\xbf'
p126
tp127
Rp128
ag23
(g27
S'\xdc9\x7f\xf8L\xde\x04\xc0'
p129
tp130
Rp131
ag23
(g27
S'\xf0\xcc\xbb\x9b\x0cZ\xdc\xbf'
p132
tp133
Rp134
ag23
(g27
S'\x9c\x18\xbd\xcf.^\xf7\xbf'
p135
tp136
Rp137
ag23
(g27
S'X\x16\n:\xaf\xb2\xfe\xbf'
p138
tp139
Rp140
ag23
(g27
S'\xc0\x18\xfa\x86\xb07\xdd\xbf'
p141
tp142
Rp143
ag23
(g27
S'HUB\x8bU\x81\xf6\xbf'
p144
tp145
Rp146
aFnan
asS'ts_b'
p147
(lp148
F1444036981.095382
aF1444036996.459801
aF1444037007.455847
aF1444037015.086052
aF1444037023.449467
aF1444037034.05499
aF1444037044.632761
aF1444037052.973978
aF1444037062.352581
aF1444037070.451739
aF1444037082.346523
aF1444037092.461258
aF1444037103.123634
aF1444037109.523456
aF1444037119.483338
aF1444037130.115262
aF1444037139.328266
aF1444037150.1473
aF1444037156.806295
aF1444037166.792326
aF1444037174.13302
aF1444037184.130304
aF1444037193.951096
aF1444037200.61462
aF1444037210.44093
aF1444037219.43546
aF1444037225.36571
aF1444037234.530001
aF1444037241.709771
aF1444037253.310003
aF1444037260.755155
aF1444037270.55531
aF1444037277.52947
aF1444037286.434549
aF1444037296.027256
aF1444037302.558088
aF1444037309.075812
aF1444037315.620551
aF1444037325.155724
aFnan
asS'MT'
p149
(lp150
F2.9826300144195557
aF3.0456161499023438
aF3.1657469272613525
aF3.448245048522949
aF3.280273914337158
aF3.386312961578369
aF3.9323949813842773
aF2.549118995666504
aF2.8655941486358643
aF3.6824729442596436
aF3.0992419719696045
aF3.9804749488830566
aF2.65008282661438
aF2.4157330989837646
aF2.966207981109619
aF2.516179084777832
aF3.35182785987854
aF2.7484829425811768
aF2.901757001876831
aF3.1612260341644287
aF2.732318162918091
aF3.032770872116089
aF2.766033887863159
aF3.1450068950653076
aF2.2997429370880127
aF2.0989890098571777
aF2.2997961044311523
aF3.6453089714050293
aF2.868131160736084
aF3.498556137084961
aF2.950187921524048
aF2.7785768508911133
aF2.196497917175293
aF2.832453966140747
aF2.243774175643921
aF2.5168662071228027
aF3.1960339546203613
aF2.4945390224456787
aF3.38150691986084
aFnan
asS'ts_f'
p151
(lp152
F1444036991.380894
aF1444036999.311375
aF1444037009.809109
aF1444037017.888677
aF1444037025.636121
aF1444037036.099307
aF1444037046.945665
aF1444037054.676186
aF1444037065.472744
aF1444037073.569956
aF1444037084.232953
aF1444037094.046671
aF1444037104.776527
aF1444037111.940801
aF1444037122.003854
aF1444037131.72155
aF1444037141.680732
aF1444037151.99466
aF1444037158.758186
aF1444037168.906799
aF1444037176.269286
aF1444037185.782706
aF1444037195.729166
aF1444037202.143773
aF1444037212.008733
aF1444037221.170797
aF1444037227.135544
aF1444037235.932522
aF1444037245.302568
aF1444037255.178932
aF1444037262.474839
aF1444037272.664094
aF1444037279.152946
aF1444037288.050103
aF1444037298.213107
aF1444037304.499528
aF1444037310.345822
aF1444037317.511698
aF1444037326.386533
aFnan
asS'ts_d'
p153
(lp154
F1444036993.429719
aF1444037001.327622
aF1444037011.873617
aF1444037019.95424
aF1444037027.685204
aF1444037038.149865
aF1444037048.994548
aF1444037056.725052
aF1444037067.52167
aF1444037075.619007
aF1444037086.282111
aF1444037096.062988
aF1444037106.825016
aF1444037113.989279
aF1444037124.052818
aF1444037133.733352
aF1444037143.713775
aF1444037154.010728
aF1444037160.807262
aF1444037170.922281
aF1444037178.318069
aF1444037187.831317
aF1444037197.778271
aF1444037204.209411
aF1444037214.057492
aF1444037223.219552
aF1444037229.152639
aF1444037237.997961
aF1444037247.353937
aF1444037257.211683
aF1444037264.546273
aF1444037274.670706
aF1444037281.160195
aF1444037290.121579
aF1444037300.250989
aF1444037306.510809
aF1444037312.37537
aF1444037319.577409
aF1444037328.43604
aFnan
asS'ts_e'
p155
(lp156
F1444036996.445905
aF1444037007.441881
aF1444037015.072807
aF1444037023.436963
aF1444037034.033306
aF1444037044.616982
aF1444037052.960608
aF1444037062.34038
aF1444037070.437768
aF1444037082.333814
aF1444037092.447343
aF1444037103.110273
aF1444037109.509112
aF1444037119.471168
aF1444037130.1021
aF1444037139.314919
aF1444037150.130654
aF1444037156.792377
aF1444037166.774803
aF1444037174.119855
aF1444037184.116296
aF1444037193.930303
aF1444037200.594514
aF1444037210.424784
aF1444037219.421572
aF1444037225.352765
aF1444037234.516695
aF1444037241.697187
aF1444037253.296504
aF1444037260.742466
aF1444037270.541735
aF1444037277.509261
aF1444037286.420168
aF1444037296.013977
aF1444037302.545346
aF1444037309.060106
aF1444037315.607342
aF1444037325.142692
aF1444037331.852759
aFnan
asS'choice_x'
p157
(lp158
g23
(g27
S'\x80\x1c\xfd\xad\xe8@\xb2\xbf'
p159
tp160
Rp161
ag23
(g27
S' \xe4\xfa\xe3\x9c\xfc\xf5\xbf'
p162
tp163
Rp164
ag23
(g27
S'\xc0\xf3hr`-\xd2\xbf'
p165
tp166
Rp167
ag23
(g27
S'\xe8\x1c\x08\xc5;L\xf3\xbf'
p168
tp169
Rp170
ag23
(g27
S'HI7S\xfc1\xf4?'
p171
tp172
Rp173
ag23
(g27
S'\xc0\xeb\x16C\x8ap\xd3\xbf'
p174
tp175
Rp176
ag23
(g27
S' \xe3\x89\xdcu\xf6\xca\xbf'
p177
tp178
Rp179
ag23
(g27
S'\x1c\xda\x0e\x1e\x0c\xd5\xfb\xbf'
p180
tp181
Rp182
ag23
(g27
S'pl#\xe4\x04\xa8\xdf\xbf'
p183
tp184
Rp185
ag23
(g27
S'\xa0l\xd32\x8f|\xe2\xbf'
p186
tp187
Rp188
ag23
(g27
S'Dk\xa3\x1b\xb9Z\xf7\xbf'
p189
tp190
Rp191
ag23
(g27
S'x\xac\n\x15H\x04\r@'
p192
tp193
Rp194
ag23
(g27
S' \xf8Y\xb9S\xba\xd6?'
p195
tp196
Rp197
ag23
(g27
S'\xa8\x9a=\xbd(\xac\xeb\xbf'
p198
tp199
Rp200
ag23
(g27
S'@\xf4G\x10\xa2\xbb\xff\xbf'
p201
tp202
Rp203
ag23
(g27
S'\x9cw\xfe\xcc<\xd5\x01\xc0'
p204
tp205
Rp206
ag23
(g27
S' . u\xf1\x93\xf9\xbf'
p207
tp208
Rp209
ag23
(g27
S'0A\x88\xd6\x9b\xd2\xdc\xbf'
p210
tp211
Rp212
ag23
(g27
S'\x00\xd8$K3\xdc\x80?'
p213
tp214
Rp215
ag23
(g27
S'83333\x0b\xfa?'
p216
tp217
Rp218
ag23
(g27
S'X\xdb\xcb\xf0\xf7\x95\xf3\xbf'
p219
tp220
Rp221
ag23
(g27
S'@8n\x04C\x12\xcf\xbf'
p222
tp223
Rp224
ag23
(g27
S'\xa0^\x10\xb7$\x1c\xe8?'
p225
tp226
Rp227
ag23
(g27
S'h\nR]so\xe2\xbf'
p228
tp229
Rp230
ag23
(g27
S'\x90\xa6\xa1&\x93\xa7\xda?'
p231
tp232
Rp233
ag23
(g27
S'\xc0\x95:L7\x17\xf4?'
p234
tp235
Rp236
ag23
(g27
S'\xc8i*5\xa7&\xe3\xbf'
p237
tp238
Rp239
ag23
(g27
S'lH\x1cq3\xbe\xf3?'
p240
tp241
Rp242
ag23
(g27
S'\xc0_M\xd3O\xfa\xc3?'
p243
tp244
Rp245
ag23
(g27
S'0A\x88\xd6\x9b2\xd7\xbf'
p246
tp247
Rp248
ag23
(g27
S'\x00\xad\xd0\x14\x0bU\xa6?'
p249
tp250
Rp251
ag23
(g27
S'\x00{A\xdc\x92p\xc5\xbf'
p252
tp253
Rp254
ag23
(g27
S'\xb4\x86<@\x1dX\x00\xc0'
p255
tp256
Rp257
ag23
(g27
S'P\xd4\xa5\xad\xe9\xb8\xfe\xbf'
p258
tp259
Rp260
ag23
(g27
S'ph;x0\x14\xd9?'
p261
tp262
Rp263
ag23
(g27
S'\x14\xa56\x0b\xd7\x94\xf9?'
p264
tp265
Rp266
ag23
(g27
S'\x80\xb6j\xe6\xaa\xe5\xa7?'
p267
tp268
Rp269
ag23
(g27
S'\xb8\xe1\x08\xa5\xa5\xe4\xe1\xbf'
p270
tp271
Rp272
ag23
(g27
S'P\xe8\x89:\xb0q\xf0\xbf'
p273
tp274
Rp275
aFnan
asS'choice_y'
p276
(lp277
g23
(g27
S'@\x1co\x1f>\x11\xd9?'
p278
tp279
Rp280
ag23
(g27
S'\x80V\xf4\xe1\x07\xeb\xf8?'
p281
tp282
Rp283
ag23
(g27
S'\xf0\x04{\xef#\r\xf5?'
p284
tp285
Rp286
ag23
(g27
S'\xc0\xc2ad\x1d\x03\xce?'
p287
tp288
Rp289
ag23
(g27
S'\x04?+wJ\xe3\x04@'
p290
tp291
Rp292
ag23
(g27
S'p\xd6F7r\xd5\xed?'
p293
tp294
Rp295
ag23
(g27
S'@\xb6\xfa.\xd0\xb9\xf8?'
p296
tp297
Rp298
ag23
(g27
S'ptX\x91\xe5g\xdd?'
p299
tp300
Rp301
ag23
(g27
S'\x90\x1e\xa3\x9f\x12\x9b\xe7?'
p302
tp303
Rp304
ag23
(g27
S'\x80\xc7\xaaP\x81\x04\xc2\xbf'
p305
tp306
Rp307
ag23
(g27
S'\xe8u\x8b!E\xc8\xe7?'
p308
tp309
Rp310
ag23
(g27
S'\xd4$K3\xdcd\x05@'
p311
tp312
Rp313
ag23
(g27
S'\x80k\x8b\xcc:`\xbd?'
p314
tp315
Rp316
ag23
(g27
S'\xff\xff\xff\xff\xff\x93\x03@'
p317
tp318
Rp319
ag23
(g27
S'0uGm\xce\xbb\xe8\xbf'
p320
tp321
Rp322
ag23
(g27
S'\x00\x1ab\xc0\xcc\xb0\xac?'
p323
tp324
Rp325
ag23
(g27
S'\x00\xe4\x90\xe0\xc1\xae\xd7\xbf'
p326
tp327
Rp328
ag23
(g27
S'\x10\xe5MJgY\xeb\xbf'
p329
tp330
Rp331
ag23
(g27
S'\xf0X\x15*\x90P\xf0\xbf'
p332
tp333
Rp334
ag23
(g27
S'\xa0/\xde@\xed\xc2\xe2?'
p335
tp336
Rp337
ag23
(g27
S'\x90\xc2L&P\x99\xd3?'
p338
tp339
Rp340
ag23
(g27
S'\x08T\x96\x05\xb6\xd0\xf6\xbf'
p341
tp342
Rp343
ag23
(g27
S'P\xec;\x83z}\xd4\xbf'
p344
tp345
Rp346
ag23
(g27
S"`\xa1'\xea\xc0F\xdc\xbf"
p347
tp348
Rp349
ag23
(g27
S'\xc0\xc4\x04;\x85\xb3\xdf\xbf'
p350
tp351
Rp352
ag23
(g27
S'\xe8\x8f\x9f\xd5i\xa1\xf1\xbf'
p353
tp354
Rp355
ag23
(g27
S'<\xcc\x81\xc3\x90\xd2\xf6?'
p356
tp357
Rp358
ag23
(g27
S'4$\x8e\xb8\x19_\x01@'
p359
tp360
Rp361
ag23
(g27
S'\xe0\xe3\xc8}\xdev\xdd\xbf'
p362
tp363
Rp364
ag23
(g27
S'\x10\xe5MJg)\xee\xbf'
p365
tp366
Rp367
ag23
(g27
S'\x00P\xda;{\x16\xbf?'
p368
tp369
Rp370
ag23
(g27
S'\x08\xfb\xce\xa0^\xb7\xf2?'
p371
tp372
Rp373
ag23
(g27
S'\xe0\xcc\xcc\xcc\xcc\x8c\xc8\xbf'
p374
tp375
Rp376
ag23
(g27
S',\x11\xa7\xd5d\xa9\xfe?'
p377
tp378
Rp379
ag23
(g27
S'0:\xac\xc8\xf2\xd3\xeb?'
p380
tp381
Rp382
ag23
(g27
S'\xb0\xd2\xcd\xea\x93Q\xd0\xbf'
p383
tp384
Rp385
ag23
(g27
S'$\xa8T\xbd\xb4\x1f\x03@'
p386
tp387
Rp388
ag23
(g27
S'\x00\xf5\x13N\xe0\x1b\xb0?'
p389
tp390
Rp391
ag23
(g27
S'\xb8\xf5\xad\xa2\x8c@\xef\xbf'
p392
tp393
Rp394
aFnan
assS'inext_trial'
p395
I40
sS'trial_list'
p396
(lp397
(dp398
S'ring2'
p399
F9.7
sS'ring1'
p400
F11.4
sS'delay'
p401
F0.0
sS'angle1'
p402
F308.0
sS'angle2'
p403
F308.0
sS'type'
p404
F4.0
sa(dp405
g399
F8.0
sg400
F9.7
sg401
F3.0
sg402
F218.0
sg403
F218.0
sg404
F4.0
sa(dp406
g399
F8.0
sg400
F11.4
sg401
F0.0
sg402
F46.0
sg403
F46.0
sg404
F4.0
sa(dp407
g399
F-1.0
sg400
F9.7
sg401
F0.0
sg402
F224.0
sg403
F-1.0
sg404
F0.0
sa(dp408
g399
F11.4
sg400
F11.4
sg401
F3.0
sg402
F40.0
sg403
F32.0
sg404
F1.0
sa(dp409
g399
F-1.0
sg400
F9.7
sg401
F3.0
sg402
F40.0
sg403
F-1.0
sg404
F0.0
sa(dp410
g399
F11.4
sg400
F11.4
sg401
F0.0
sg402
F125.0
sg403
F109.0
sg404
F1.0
sa(dp411
g399
F8.0
sg400
F8.0
sg401
F3.0
sg402
F55.0
sg403
F67.0
sg404
F2.0
sa(dp412
g399
F9.7
sg400
F8.0
sg401
F0.0
sg402
F52.0
sg403
F52.0
sg404
F3.0
sa(dp413
g399
F11.4
sg400
F11.4
sg401
F3.0
sg402
F234.0
sg403
F226.0
sg404
F1.0
sa(dp414
g399
F11.4
sg400
F9.7
sg401
F3.0
sg402
F230.0
sg403
F230.0
sg404
F3.0
sa(dp415
g399
F11.4
sg400
F11.4
sg401
F3.0
sg402
F324.0
sg403
F340.0
sg404
F2.0
sa(dp416
g399
F-1.0
sg400
F11.4
sg401
F0.0
sg402
F310.0
sg403
F-1.0
sg404
F0.0
sa(dp417
g399
F9.7
sg400
F8.0
sg401
F3.0
sg402
F30.0
sg403
F30.0
sg404
F3.0
sa(dp418
g399
F11.4
sg400
F8.0
sg401
F3.0
sg402
F236.0
sg403
F236.0
sg404
F3.0
sa(dp419
g399
F-1.0
sg400
F8.0
sg401
F3.0
sg402
F225.0
sg403
F-1.0
sg404
F0.0
sa(dp420
g399
F8.0
sg400
F11.4
sg401
F3.0
sg402
F232.0
sg403
F232.0
sg404
F4.0
sa(dp421
g399
F11.4
sg400
F11.4
sg401
F0.0
sg402
F228.0
sg403
F240.0
sg404
F2.0
sa(dp422
g399
F11.4
sg400
F11.4
sg401
F3.0
sg402
F234.0
sg403
F246.0
sg404
F2.0
sa(dp423
g399
F11.4
sg400
F11.4
sg401
F0.0
sg402
F300.0
sg403
F308.0
sg404
F2.0
sa(dp424
g399
F-1.0
sg400
F9.7
sg401
F3.0
sg402
F148.0
sg403
F-1.0
sg404
F0.0
sa(dp425
g399
F9.7
sg400
F11.4
sg401
F3.0
sg402
F229.0
sg403
F229.0
sg404
F4.0
sa(dp426
g399
F11.4
sg400
F8.0
sg401
F0.0
sg402
F312.0
sg403
F312.0
sg404
F3.0
sa(dp427
g399
F8.0
sg400
F8.0
sg401
F3.0
sg402
F307.0
sg403
F295.0
sg404
F1.0
sa(dp428
g399
F-1.0
sg400
F9.7
sg401
F3.0
sg402
F325.0
sg403
F-1.0
sg404
F0.0
sa(dp429
g399
F-1.0
sg400
F9.7
sg401
F0.0
sg402
F324.0
sg403
F-1.0
sg404
F0.0
sa(dp430
g399
F9.7
sg400
F8.0
sg401
F3.0
sg402
F136.0
sg403
F136.0
sg404
F3.0
sa(dp431
g399
F-1.0
sg400
F9.7
sg401
F0.0
sg402
F45.0
sg403
F-1.0
sg404
F0.0
sa(dp432
g399
F8.0
sg400
F11.4
sg401
F3.0
sg402
F139.0
sg403
F139.0
sg404
F4.0
sa(dp433
g399
F11.4
sg400
F11.4
sg401
F0.0
sg402
F228.0
sg403
F236.0
sg404
F2.0
sa(dp434
g399
F8.0
sg400
F9.7
sg401
F3.0
sg402
F34.0
sg403
F34.0
sg404
F4.0
sa(dp435
g399
F9.7
sg400
F8.0
sg401
F0.0
sg402
F132.0
sg403
F132.0
sg404
F3.0
sa(dp436
g399
F-1.0
sg400
F9.7
sg401
F3.0
sg402
F210.0
sg403
F-1.0
sg404
F0.0
sa(dp437
g399
F11.4
sg400
F11.4
sg401
F3.0
sg402
F149.0
sg403
F157.0
sg404
F2.0
sa(dp438
g399
F8.0
sg400
F8.0
sg401
F0.0
sg402
F125.0
sg403
F109.0
sg404
F1.0
sa(dp439
g399
F8.0
sg400
F8.0
sg401
F0.0
sg402
F328.0
sg403
F340.0
sg404
F2.0
sa(dp440
g399
F9.7
sg400
F11.4
sg401
F0.0
sg402
F56.0
sg403
F56.0
sg404
F4.0
sa(dp441
g399
F8.0
sg400
F8.0
sg401
F3.0
sg402
F139.0
sg403
F123.0
sg404
F1.0
sa(dp442
g399
F11.4
sg400
F8.0
sg401
F0.0
sg402
F217.0
sg403
F217.0
sg404
F3.0
sa(dp443
g399
F8.0
sg400
F8.0
sg401
F3.0
sg402
F221.0
sg403
F237.0
sg404
F2.0
sasS'dir'
p444
Vsubjects_behavior/marcpl_session1_run1
p445
sS'subject'
p446
Vmarcpl_session1_run1
p447
sb.