ccopy_reg
_reconstructor
p0
(cTrialHandler2
TrialHandler2
p1
c__builtin__
object
p2
Ntp3
Rp4
(dp5
S'n_trials'
p6
I40
sS'log_path'
p7
Vsubjects_behavior/marcpl_session1_run2/marcpl_session1_run2
p8
sS'data_dict'
p9
(dp10
S'RT'
p11
(lp12
F0.00021505355834960938
aF0.0003998279571533203
aF0.0003368854522705078
aF0.0004000663757324219
aF0.0004100799560546875
aF0.00037097930908203125
aF0.0003948211669921875
aF0.00031495094299316406
aF0.0003409385681152344
aF0.0003590583801269531
aF0.00022411346435546875
aF0.00023293495178222656
aF0.00032806396484375
aF0.00048613548278808594
aF0.00026106834411621094
aF0.00024509429931640625
aF0.0002529621124267578
aF0.00043702125549316406
aF0.00032711029052734375
aF0.00026917457580566406
aF0.0004780292510986328
aF0.0002639293670654297
aF0.00024008750915527344
aF0.0002281665802001953
aF0.00030493736267089844
aF0.0003941059112548828
aF0.00020003318786621094
aF0.00038909912109375
aF0.00022411346435546875
aF0.0005831718444824219
aF0.00022220611572265625
aF0.00029087066650390625
aF0.000270843505859375
aF0.0002961158752441406
aF0.0002689361572265625
aF0.0004189014434814453
aF0.00025916099548339844
aF0.0002219676971435547
aF0.0003750324249267578
aF0.000370025634765625
asS'ts_r'
p13
(lp14
F1444037747.811332
aF1444037757.274624
aF1444037764.872121
aF1444037774.802097
aF1444037782.252703
aF1444037792.979393
aF1444037799.993966
aF1444037806.908336
aF1444037813.606077
aF1444037819.871477
aF1444037828.651063
aF1444037838.164556
aF1444037845.231236
aF1444037854.142542
aF1444037860.876039
aF1444037870.806674
aF1444037877.267983
aF1444037883.982401
aF1444037893.529399
aF1444037899.627566
aF1444037908.574186
aF1444037918.254327
aF1444037928.134553
aF1444037937.59806
aF1444037946.534326
aF1444037955.058872
aF1444037964.172481
aF1444037973.485946
aF1444037979.267484
aF1444037985.248645
aF1444037991.332301
aF1444037999.27729
aF1444038006.325128
aF1444038016.85498
aF1444038025.718462
aF1444038032.049884
aF1444038040.613469
aF1444038048.862817
aF1444038057.025197
aF1444038065.705322
asS'fixated'
p15
(lp16
I1
aI1
aI1
aI1
aI1
aI1
aI1
aI1
aI1
aI1
aI1
aI1
aI1
aI1
aI1
aI1
aI1
aI1
aI1
aI1
aI1
aI1
aI1
aI1
aI1
aI1
aI1
aI1
aI1
aI1
aI1
aI1
aI1
aI1
aI1
aI1
aI1
aI1
aI1
aI1
asS'choiceAngle'
p17
(lp18
F-6.443747772919352
aF10.07853535873872
aF2.7696753859943612
aF-4.559634724493385
aF5.814739181377604
aF11.052733441482587
aF-11.163580176121798
aF1.4533094540726808
aF3.5056242101910016
aF-1.5946433685914414
aF3.1816970355481615
aF-3.3527944346652987
aF-0.8724571229020626
aF10.254748523389587
aF1.8113840367583975
aF-6.03551289874688
aF0.1546085404152393
aF-1.4434737963000543
aF2.5011164888792905
aF-7.195753452886407
aF7.335059218609132
aF-10.67852423665397
aF-12.426511572114286
aF1.560130794217777
aF2.830637081383223
aF-0.7076344362318778
aF-1.69515353123397
aF0.9749295159961378
aF-3.2647545482234293
aF-10.050419163337494
aF3.673355432403497
aF4.556424320074285
aF6.833343653323951
aF4.200678558041517
aF5.604862957492514
aF-11.003540851749534
aF-9.551218286726574
aF-4.334149347690925
aF-2.5307656099481264
aF-5.244498572162705
asS'ts_p'
p19
(lp20
F1444037746.748469
aF1444037753.17597
aF1444037763.806031
aF1444037770.703728
aF1444037781.21813
aF1444037788.91418
aF1444037798.928403
aF1444037805.87589
aF1444037812.57309
aF1444037818.837416
aF1444037824.553671
aF1444037834.065901
aF1444037844.163152
aF1444037850.077252
aF1444037859.80904
aF1444037866.704802
aF1444037876.235168
aF1444037882.916073
aF1444037889.464103
aF1444037898.561056
aF1444037904.477979
aF1444037914.156392
aF1444037924.035915
aF1444037933.534488
aF1444037942.46317
aF1444037950.966747
aF1444037960.107221
aF1444037969.420759
aF1444037978.201152
aF1444037984.182495
aF1444037990.264362
aF1444037998.244224
aF1444038005.260219
aF1444038012.756923
aF1444038021.65335
aF1444038030.983915
aF1444038036.51535
aF1444038044.76365
aF1444038052.961932
aF1444038061.639978
asS'choiceR'
p21
(lp22
cnumpy.core.multiarray
scalar
p23
(cnumpy
dtype
p24
(S'f8'
p25
I0
I1
tp26
Rp27
(I3
S'<'
p28
NNNI-1
I-1
I0
tp29
bS'\x84\xe3H\xaf>\x93\xf9\xbf'
p30
tp31
Rp32
ag23
(g27
S'\xe0\xb57\xc8\xafW\xe1?'
p33
tp34
Rp35
ag23
(g27
S'x\x9f0|\xe9\xb0\xfd\xbf'
p36
tp37
Rp38
ag23
(g27
S'\x94\xbd>0\x9c\x1f\xf8\xbf'
p39
tp40
Rp41
ag23
(g27
S'\xc8\x1ctm\xc3\x17\x03\xc0'
p42
tp43
Rp44
ag23
(g27
S'@\xe7r\xee\xfc^\xc5?'
p45
tp46
Rp47
ag23
(g27
S'p\xa0\x9ahg\xc8\xf5\xbf'
p48
tp49
Rp50
ag23
(g27
S'\xf8^\x1f\x9b\x91F\x0c\xc0'
p51
tp52
Rp53
ag23
(g27
S'`{3Hw\xc7\xf8\xbf'
p54
tp55
Rp56
ag23
(g27
S'D\xa4\x9d1\xc4\xa6\xf1\xbf'
p57
tp58
Rp59
ag23
(g27
S'\xc0\xa2\xe6\x03\xd3+\xc5\xbf'
p60
tp61
Rp62
ag23
(g27
S'\xc0\xd8\xe1\xa3%\x1c\xeb\xbf'
p63
tp64
Rp65
ag23
(g27
S'\x00-\xeeM\x14\xdf\xc4?'
p66
tp67
Rp68
ag23
(g27
S'\x80\x8e\xe1\xc9@\x81\xb4?'
p69
tp70
Rp71
ag23
(g27
S'\xd0\xc9N\xff!\x9c\xe6?'
p72
tp73
Rp74
ag23
(g27
S'xu\x1fm\xd2\x19\xfa\xbf'
p75
tp76
Rp77
ag23
(g27
S'\x00\xcd\xaa\t\x99\xd1\xb8\xbf'
p78
tp79
Rp80
ag23
(g27
S'P\xa0\x1b\x14b\xf4\xf3\xbf'
p81
tp82
Rp83
ag23
(g27
S'\xc0\xc9\x9eL\xbe\x9c\xec\xbf'
p84
tp85
Rp86
ag23
(g27
S'\x00\x00\x16\x80\xe8\xbc\xde\xbf'
p87
tp88
Rp89
ag23
(g27
S'\xa0}\xa7\xd7\xaeG\xed\xbf'
p90
tp91
Rp92
ag23
(g27
S'8@\xcb\xfa/\xd4\x00\xc0'
p93
tp94
Rp95
ag23
(g27
S'\x08\x13\xea\x8e\x91\x9e\xf5\xbf'
p96
tp97
Rp98
ag23
(g27
S'H}\r\x0c\x11\xc5\x00\xc0'
p99
tp100
Rp101
ag23
(g27
S'$z1B-\xc4\xf5\xbf'
p102
tp103
Rp104
ag23
(g27
S' ix\xa47\xfd\xdb\xbf'
p105
tp106
Rp107
ag23
(g27
S'\x8e\xd3\xa9\xcf\xaaN\x02\xc0'
p108
tp109
Rp110
ag23
(g27
S'\xc0\xce\x0cL\xbd\x8b\xc3\xbf'
p111
tp112
Rp113
ag23
(g27
S'x\xd3\xcf\xdd>%\xe5\xbf'
p114
tp115
Rp116
ag23
(g27
S'\xb8I\x13\xa9\x9a8\xfa\xbf'
p117
tp118
Rp119
ag23
(g27
S'\x88\xab\xd6\xfdHU\xf6?'
p120
tp121
Rp122
ag23
(g27
S'\x90E\xb1(`"\xd0\xbf'
p123
tp124
Rp125
ag23
(g27
S'`\xed\x1b[\xceZ\xe4\xbf'
p126
tp127
Rp128
ag23
(g27
S'\x10x1D\xd4\xa4\xe1\xbf'
p129
tp130
Rp131
ag23
(g27
S'\xe4x\xe2,F\x1b\x03\xc0'
p132
tp133
Rp134
ag23
(g27
S'\xb47M\x01\xb3\xc0\xfe\xbf'
p135
tp136
Rp137
ag23
(g27
S'\xc8.\x8e\x03\x80\xfd\xee\xbf'
p138
tp139
Rp140
ag23
(g27
S'\xa0\x8d\x13*\xd2\xe7\xdb\xbf'
p141
tp142
Rp143
ag23
(g27
S'\x80\r\x8a\xa3\xfa\\\xdd\xbf'
p144
tp145
Rp146
ag23
(g27
S'\xf8\xe7\xb4\xd2\n\xcc\xfb\xbf'
p147
tp148
Rp149
asS'ts_b'
p150
(lp151
F1444037729.848994
aF1444037750.439917
aF1444037760.43741
aF1444037767.902867
aF1444037777.665284
aF1444037785.345065
aF1444037795.676396
aF1444037802.590405
aF1444037809.838462
aF1444037815.968097
aF1444037822.066941
aF1444037830.714914
aF1444037840.794838
aF1444037847.325779
aF1444037856.972268
aF1444037863.79164
aF1444037873.533007
aF1444037880.084635
aF1444037886.196336
aF1444037896.058756
aF1444037902.00612
aF1444037911.66995
aF1444037920.368281
aF1444037930.747504
aF1444037939.827197
aF1444037948.624146
aF1444037957.688672
aF1444037966.41904
aF1444037975.552724
aF1444037981.347595
aF1444037987.614648
aF1444037994.375605
aF1444038001.451853
aF1444038010.153914
aF1444038018.920247
aF1444038028.132534
aF1444038034.446465
aF1444038042.642858
aF1444038050.744972
aF1444038058.971381
asS'MT'
p152
(lp153
F2.615908145904541
aF3.14912486076355
aF3.016216993331909
aF2.8494129180908203
aF3.0794999599456787
aF2.6831018924713135
aF2.5827720165252686
aF2.9165539741516113
aF2.34914493560791
aF2.1820600032806396
aF2.049983024597168
aF2.6158199310302734
aF2.080160140991211
aF2.8158199787139893
aF2.9014971256256104
aF2.7127089500427246
aF2.8025729656219482
aF2.2013421058654785
aF2.515895128250122
aF2.3657071590423584
aF3.0825021266937256
aF2.100950002670288
aF2.5992941856384277
aF2.216346025466919
aF2.0764780044555664
aF2.615755081176758
aF2.2327799797058105
aF2.050477981567383
aF2.066279172897339
aF2.3507180213928223
aF3.0302889347076416
aF2.1511218547821045
aF3.815232992172241
aF2.0515940189361572
aF2.3998870849609375
aF2.3827881813049316
aF2.016205072402954
aF1.8645150661468506
aF1.9326550960540771
aF1.9992280006408691
asS'ts_f'
p154
(lp155
F1444037745.728855
aF1444037752.160107
aF1444037762.789862
aF1444037769.687645
aF1444037780.184163
aF1444037787.88151
aF1444037797.911566
aF1444037804.859308
aF1444037811.557313
aF1444037817.821577
aF1444037823.536404
aF1444037833.050183
aF1444037843.146332
aF1444037849.061073
aF1444037858.791518
aF1444037865.68913
aF1444037875.219026
aF1444037881.903709
aF1444037888.448016
aF1444037897.544972
aF1444037903.46003
aF1444037913.139727
aF1444037923.020277
aF1444037932.516589
aF1444037941.4477
aF1444037949.944277
aF1444037959.091465
aF1444037968.405011
aF1444037977.186091
aF1444037983.169398
aF1444037989.233107
aF1444037997.211805
aF1444038004.242881
aF1444038011.7401
aF1444038020.637426
aF1444038029.967697
aF1444038035.500196
aF1444038043.746133
aF1444038051.945905
aF1444038060.624149
asS'ts_d'
p156
(lp157
F1444037747.777768
aF1444037754.20918
aF1444037764.83897
aF1444037771.736665
aF1444037782.218494
aF1444037789.91479
aF1444037799.961179
aF1444037806.878138
aF1444037813.576251
aF1444037819.838073
aF1444037825.585154
aF1444037835.102171
aF1444037845.195518
aF1444037851.109968
aF1444037860.840052
aF1444037867.741385
aF1444037877.236187
aF1444037883.949254
aF1444037890.46554
aF1444037899.594023
aF1444037905.508491
aF1444037915.188843
aF1444037925.069114
aF1444037934.53545
aF1444037943.496041
aF1444037951.993204
aF1444037961.109952
aF1444037970.453708
aF1444037979.234159
aF1444037985.216443
aF1444037991.298997
aF1444037999.246276
aF1444038006.296302
aF1444038013.789262
aF1444038022.686291
aF1444038032.016519
aF1444038037.547772
aF1444038045.795032
aF1444038053.962081
aF1444038062.640118
asS'ts_e'
p158
(lp159
F1444037750.427448
aF1444037760.424154
aF1444037767.888681
aF1444037777.651912
aF1444037785.332616
aF1444037795.662869
aF1444037802.577137
aF1444037809.82521
aF1444037815.955567
aF1444037822.053898
aF1444037830.701272
aF1444037840.780612
aF1444037847.311727
aF1444037856.95885
aF1444037863.777801
aF1444037873.519632
aF1444037880.070812
aF1444037886.184187
aF1444037896.045625
aF1444037901.99355
aF1444037911.657172
aF1444037920.355546
aF1444037930.734091
aF1444037939.814638
aF1444037948.611115
aF1444037957.675025
aF1444037966.405465
aF1444037975.536816
aF1444037981.33399
aF1444037987.599948
aF1444037994.362815
aF1444038001.428707
aF1444038010.140635
aF1444038018.906876
aF1444038028.118622
aF1444038034.433094
aF1444038042.629936
aF1444038050.727557
aF1444038058.958229
aF1444038067.704925
asS'choice_x'
p160
(lp161
g23
(g27
S'H\x8f\xd1O\x89\xbd\xfb\xbf'
p162
tp163
Rp164
ag23
(g27
S'X\x88.H]\x98\xf0?'
p165
tp166
Rp167
ag23
(g27
S'\xf0X\x15*\x90\x80\xfc\xbf'
p168
tp169
Rp170
ag23
(g27
S'\x90\xd2\xcd\xea\x93\xd1\xd7\xbf'
p171
tp172
Rp173
ag23
(g27
S'X\\@\xea\xe2\xe7\xe8?'
p174
tp175
Rp176
ag23
(g27
S'\xb4I\x96f\xb8A\xfc\xbf'
p177
tp178
Rp179
ag23
(g27
S'@\xc4\x01y\xde\xe4\x03\xc0'
p180
tp181
Rp182
ag23
(g27
S'\xd4\x880k\x8c\xd7\x08\xc0'
p183
tp184
Rp185
ag23
(g27
S'p\xbf\xb8\xa2\x8ea\xf8?'
p186
tp187
Rp188
ag23
(g27
S'@\x19\xad\xa8\t\xa3\xe7\xbf'
p189
tp190
Rp191
ag23
(g27
S'`<}\xb8\x15\t\xcc\xbf'
p192
tp193
Rp194
ag23
(g27
S'\x14~V\xee\x94v\xf0\xbf'
p195
tp196
Rp197
ag23
(g27
S'\xa0\x86\x1803\xec\xc9\xbf'
p198
tp199
Rp200
ag23
(g27
S'T\x8f\xcd\x19GL\xf0\xbf'
p201
tp202
Rp203
ag23
(g27
S'\xc0ST\xb2\xc6\x10\xd5\xbf'
p204
tp205
Rp206
ag23
(g27
S'\x00\xab!\x80\xf9\xf2\xac\xbf'
p207
tp208
Rp209
ag23
(g27
S'\x00@t\xe4\x80\x13\xb9?'
p210
tp211
Rp212
ag23
(g27
S'\x80\x92n\xa6\xf8c\xe9\xbf'
p213
tp214
Rp215
ag23
(g27
S'\xc0\xc2\xc9\x98\xe3\xce\xd8\xbf'
p216
tp217
Rp218
ag23
(g27
S'`\x88.H]\xd0\xf4\xbf'
p219
tp220
Rp221
ag23
(g27
S'H\x8f\xd1O\x89-\xf5?'
p222
tp223
Rp224
ag23
(g27
S',\xea\xd2\xd6t\xa0\x06\xc0'
p225
tp226
Rp227
ag23
(g27
S'8\x16=\xd6\xacA\xe5?'
p228
tp229
Rp230
ag23
(g27
S'd<\x91\xbb\xce\x96\xf6\xbf'
p231
tp232
Rp233
ag23
(g27
S' \x1dVd\xf9\xf1\xf4\xbf'
p234
tp235
Rp236
ag23
(g27
S'\xe0\xe3\x90\xe0\xc1n\xdb?'
p237
tp238
Rp239
ag23
(g27
S'\xdc\x00@\xac\xb1T\x00@'
p240
tp241
Rp242
ag23
(g27
S'\x00\x94\xd1\x8a\x9a0\xa2?'
p243
tp244
Rp245
ag23
(g27
S'\xc8i*5\xa7\xc6\xe8?'
p246
tp247
Rp248
ag23
(g27
S'\x88_\xf4\x19\xb2~\x03\xc0'
p249
tp250
Rp251
ag23
(g27
S'@\x19\xb5\xf9a\xf1\xd3\xbf'
p252
tp253
Rp254
ag23
(g27
S'\xc0K\xe2\xc3\xe75\xe5?'
p255
tp256
Rp257
ag23
(g27
S'X\xdb\xcb\xf0\xf7\xa5\xf2?'
p258
tp259
Rp260
ag23
(g27
S'\xa0\xa0R\xf5\xd2\x9e\xed?'
p261
tp262
Rp263
ag23
(g27
S'\xe0\x10\x07\xe4y\x13\xeb?'
p264
tp265
Rp266
ag23
(g27
S'\x9cw\xfe\xcc<\x11\x02\xc0'
p267
tp268
Rp269
ag23
(g27
S'\x00\xcahEM\x18\xb8\xbf'
p270
tp271
Rp272
ag23
(g27
S'@\x19\xb5\xf9a1\xd0\xbf'
p273
tp274
Rp275
ag23
(g27
S'\x00e\xb4\xa2&\x8c\xc3\xbf'
p276
tp277
Rp278
ag23
(g27
S'X\xd4\xa5\xad\xe9\xa8\xff?'
p279
tp280
Rp281
asS'choice_y'
p282
(lp283
g23
(g27
S'\x80\x93\xdc\x1b\xfbW\xdc\xbf'
p284
tp285
Rp286
ag23
(g27
S'\x80w\xfc\rC\x96\xfd?'
p287
tp288
Rp289
ag23
(g27
S'\xa0l\xd32\x8f,\xe7?'
p290
tp291
Rp292
ag23
(g27
S'\x18\xa56\x0b\xd7\x1c\xf9?'
p293
tp294
Rp295
ag23
(g27
S'|\x1c\x12<\xd8\xd5\x03@'
p296
tp297
Rp298
ag23
(g27
S'\xf0X\x15*\x90x\xf5?'
p299
tp300
Rp301
ag23
(g27
S'\x00\xea]\xf4\xad\xe8\x91?'
p302
tp303
Rp304
ag23
(g27
S'\xa4\xecr\x18CH\xfb?'
p305
tp306
Rp307
ag23
(g27
S'\xe0\xb8\x83\xbbv\x9d\xe0\xbf'
p308
tp309
Rp310
ag23
(g27
S'\xe8\xd5C"$\x0b\xeb?'
p311
tp312
Rp313
ag23
(g27
S'\x90\x03\xf5,\xfa\x96\xda?'
p314
tp315
Rp316
ag23
(g27
S'\x00%\xddL\xf1\x07\xd1\xbf'
p317
tp318
Rp319
ag23
(g27
S'\x002\xc4\x80\x99a\x9b?'
p320
tp321
Rp322
ag23
(g27
S'\x08\xa6!\x83\xffD\xf0?'
p323
tp324
Rp325
ag23
(g27
S'\xe0\x81.\x987E\xe7?'
p326
tp327
Rp328
ag23
(g27
S'\xf8CG\x0e8\x91\xff?'
p329
tp330
Rp331
ag23
(g27
S'\x00UC\x00\xf3\xe5\x9b\xbf'
p332
tp333
Rp334
ag23
(g27
S'(\xfc\xac\xdc)\xfd\xef?'
p335
tp336
Rp337
ag23
(g27
S'\x10LC\x06\xff\xd9\xeb\xbf'
p338
tp339
Rp340
ag23
(g27
S'\x18\xef\xf8\x1b\x86\x9c\xe6?'
p341
tp342
Rp343
ag23
(g27
S'\x00\xb2\x8d\x90\x13 \xbd?'
p344
tp345
Rp346
ag23
(g27
S'\x80\xbbc\xa9l\xda\xd3?'
p347
tp348
Rp349
ag23
(g27
S'\xd8\x00@\xac\xb14\x02@'
p350
tp351
Rp352
ag23
(g27
S'@\xb6\xfa.\xd01\xf9?'
p353
tp354
Rp355
ag23
(g27
S'\xb8K\xe2\xc3\xe7\x85\xe0?'
p356
tp357
Rp358
ag23
(g27
S'`q\x01\xa9\x8b\xdf\xc4?'
p359
tp360
Rp361
ag23
(g27
S'\xe4t\xe1\x94)\x07\xf1?'
p362
tp363
Rp364
ag23
(g27
S'\xa0W\x0f\x89\x90\xac\xc9?'
p365
tp366
Rp367
ag23
(g27
S'\x00b\x0e\x1c\x86T\xc5?'
p368
tp369
Rp370
ag23
(g27
S'@\xac\xabM9\xcf\xd9\xbf'
p371
tp372
Rp373
ag23
(g27
S'\x84u\xbd\xf1\x0e;\xf8?'
p374
tp375
Rp376
ag23
(g27
S' \x17O\xdd40\xc0?'
p377
tp378
Rp379
ag23
(g27
S'\xb0\x9e\xd9\xecWc\xe1?'
p380
tp381
Rp382
ag23
(g27
S'`\xa92\xa3Jc\xd5?'
p383
tp384
Rp385
ag23
(g27
S'4D\x17\xa4.\x8c\x03@'
p386
tp387
Rp388
ag23
(g27
S'`\xde\xf93\xf3\xc4\xe3\xbf'
p389
tp390
Rp391
ag23
(g27
S'\xf4\xea!\x11\x92=\xf9?'
p392
tp393
Rp394
ag23
(g27
S'\xf8\x14\x85\x1c\xe2\x99\xe9\xbf'
p395
tp396
Rp397
ag23
(g27
S'\xe8\xd5C"$\xab\xe1?'
p398
tp399
Rp400
ag23
(g27
S'\x00\x898\xad&K\xc4?'
p401
tp402
Rp403
assS'inext_trial'
p404
I40
sS'trial_list'
p405
(lp406
(dp407
S'ring2'
p408
F8.0
sS'ring1'
p409
F8.0
sS'delay'
p410
F0.0
sS'angle1'
p411
F218.0
sS'angle2'
p412
F206.0
sS'type'
p413
F1.0
sa(dp414
g408
F9.7
sg409
F11.4
sg410
F3.0
sg411
F321.0
sg412
F321.0
sg413
F4.0
sa(dp415
g408
F8.0
sg409
F11.4
sg410
F0.0
sg411
F144.0
sg412
F144.0
sg413
F4.0
sa(dp416
g408
F8.0
sg409
F8.0
sg410
F3.0
sg411
F122.0
sg412
F134.0
sg413
F2.0
sa(dp417
g408
F11.4
sg409
F11.4
sg410
F0.0
sg411
F52.0
sg412
F64.0
sg413
F2.0
sa(dp418
g408
F9.7
sg409
F11.4
sg410
F3.0
sg411
F54.0
sg412
F54.0
sg413
F4.0
sa(dp419
g408
F-1.0
sg409
F11.4
sg410
F0.0
sg411
F231.0
sg412
F-1.0
sg413
F0.0
sa(dp420
g408
F11.4
sg409
F11.4
sg410
F0.0
sg411
F148.0
sg412
F156.0
sg413
F2.0
sa(dp421
g408
F8.0
sg409
F8.0
sg410
F0.0
sg411
F327.0
sg412
F319.0
sg413
F1.0
sa(dp422
g408
F-1.0
sg409
F8.0
sg410
F0.0
sg411
F141.0
sg412
F-1.0
sg413
F0.0
sa(dp423
g408
F8.0
sg409
F8.0
sg410
F3.0
sg411
F50.0
sg412
F42.0
sg413
F1.0
sa(dp424
g408
F11.4
sg409
F11.4
sg410
F3.0
sg411
F230.0
sg412
F246.0
sg413
F2.0
sa(dp425
g408
F8.0
sg409
F8.0
sg410
F0.0
sg411
F315.0
sg412
F299.0
sg413
F1.0
sa(dp426
g408
F-1.0
sg409
F8.0
sg410
F3.0
sg411
F47.0
sg412
F-1.0
sg413
F0.0
sa(dp427
g408
F8.0
sg409
F11.4
sg410
F0.0
sg411
F323.0
sg412
F323.0
sg413
F4.0
sa(dp428
g408
F11.4
sg409
F11.4
sg410
F3.0
sg411
F123.0
sg412
F111.0
sg413
F1.0
sa(dp429
g408
F11.4
sg409
F11.4
sg410
F0.0
sg411
F327.0
sg412
F339.0
sg413
F2.0
sa(dp430
g408
F11.4
sg409
F11.4
sg410
F0.0
sg411
F140.0
sg412
F128.0
sg413
F1.0
sa(dp431
g408
F8.0
sg409
F8.0
sg410
F3.0
sg411
F227.0
sg412
F219.0
sg413
F1.0
sa(dp432
g408
F8.0
sg409
F11.4
sg410
F0.0
sg411
F219.0
sg412
F219.0
sg413
F4.0
sa(dp433
g408
F9.7
sg409
F8.0
sg410
F3.0
sg411
F322.0
sg412
F322.0
sg413
F3.0
sa(dp434
g408
F-1.0
sg409
F11.4
sg410
F3.0
sg411
F211.0
sg412
F-1.0
sg413
F0.0
sa(dp435
g408
F8.0
sg409
F9.7
sg410
F3.0
sg411
F123.0
sg412
F123.0
sg413
F4.0
sa(dp436
g408
F11.4
sg409
F11.4
sg410
F3.0
sg411
F125.0
sg412
F141.0
sg413
F2.0
sa(dp437
g408
F-1.0
sg409
F8.0
sg410
F3.0
sg411
F145.0
sg412
F-1.0
sg413
F0.0
sa(dp438
g408
F8.0
sg409
F11.4
sg410
F3.0
sg411
F38.0
sg412
F38.0
sg413
F4.0
sa(dp439
g408
F11.4
sg409
F9.7
sg410
F3.0
sg411
F33.0
sg412
F33.0
sg413
F3.0
sa(dp440
g408
F11.4
sg409
F8.0
sg410
F3.0
sg411
F39.0
sg412
F39.0
sg413
F3.0
sa(dp441
g408
F8.0
sg409
F8.0
sg410
F0.0
sg411
F44.0
sg412
F28.0
sg413
F1.0
sa(dp442
g408
F11.4
sg409
F11.4
sg410
F0.0
sg411
F233.0
sg412
F217.0
sg413
F1.0
sa(dp443
g408
F8.0
sg409
F9.7
sg410
F0.0
sg411
F309.0
sg412
F309.0
sg413
F4.0
sa(dp444
g408
F-1.0
sg409
F8.0
sg410
F0.0
sg411
F305.0
sg412
F-1.0
sg413
F0.0
sa(dp445
g408
F11.4
sg409
F9.7
sg410
F0.0
sg411
F328.0
sg412
F328.0
sg413
F3.0
sa(dp446
g408
F8.0
sg409
F11.4
sg410
F3.0
sg411
F326.0
sg412
F326.0
sg413
F4.0
sa(dp447
g408
F11.4
sg409
F11.4
sg410
F3.0
sg411
F51.0
sg412
F39.0
sg413
F1.0
sa(dp448
g408
F8.0
sg409
F8.0
sg410
F0.0
sg411
F225.0
sg412
F217.0
sg413
F1.0
sa(dp449
g408
F8.0
sg409
F8.0
sg410
F3.0
sg411
F141.0
sg412
F133.0
sg413
F1.0
sa(dp450
g408
F8.0
sg409
F9.7
sg410
F3.0
sg411
F309.0
sg412
F309.0
sg413
F4.0
sa(dp451
g408
F11.4
sg409
F8.0
sg410
F3.0
sg411
F141.0
sg412
F141.0
sg413
F3.0
sa(dp452
g408
F-1.0
sg409
F11.4
sg410
F3.0
sg411
F31.0
sg412
F-1.0
sg413
F0.0
sasS'dir'
p453
Vsubjects_behavior/marcpl_session1_run2
p454
sS'subject'
p455
Vmarcpl_session1_run2
p456
sb.